

Microchip MPLAB XC8 Assembler V2.40 build 20220703182018 
                                                                                               Sun Mar 05 02:09:53 2023

Microchip MPLAB XC8 C Compiler v2.40 (Free license) build 20220703182018 Og1 
     1                           	processor	16F887
     2                           	pagewidth 120
     3                           	opt	flic
     4                           	psect	cinit,global,class=CODE,merge=1,delta=2
     5                           	psect	bssBANK0,global,class=BANK0,space=1,delta=1,noexec
     6                           	psect	cstackCOMMON,global,class=COMMON,space=1,delta=1,noexec
     7                           	psect	cstackBANK0,global,class=BANK0,space=1,delta=1,noexec
     8                           	psect	maintext,global,class=CODE,split=1,delta=2
     9                           	psect	text1,local,class=CODE,merge=1,delta=2
    10                           	psect	text2,local,class=CODE,merge=1,delta=2
    11                           	psect	text3,local,class=CODE,merge=1,delta=2
    12                           	psect	intentry,global,class=CODE,delta=2
    13                           	psect	text4,local,class=CODE,merge=1,delta=2
    14                           	psect	text5,local,class=CODE,merge=1,delta=2,group=1
    15                           	psect	text6,local,class=CODE,merge=1,delta=2,group=1
    16                           	psect	text7,local,class=CODE,merge=1,delta=2,group=1
    17                           	psect	idloc,global,abs,ovrld,class=IDLOC,space=5,delta=2,noexec
    18                           	psect	config,global,abs,ovrld,class=CONFIG,space=4,delta=2,noexec
    19                           	dabs	1,0x7E,2
    20     0000                     
    21                           ; Version 2.40
    22                           ; Generated 17/11/2021 GMT
    23                           ; 
    24                           ; Copyright © 2021, Microchip Technology Inc. and its subsidiaries ("Microchip")
    25                           ; All rights reserved.
    26                           ; 
    27                           ; This software is developed by Microchip Technology Inc. and its subsidiaries ("Microch
      +                          ip").
    28                           ; 
    29                           ; Redistribution and use in source and binary forms, with or without modification, are
    30                           ; permitted provided that the following conditions are met:
    31                           ; 
    32                           ;     1. Redistributions of source code must retain the above copyright notice, this lis
      +                          t of
    33                           ;        conditions and the following disclaimer.
    34                           ; 
    35                           ;     2. Redistributions in binary form must reproduce the above copyright notice, this 
      +                          list
    36                           ;        of conditions and the following disclaimer in the documentation and/or other
    37                           ;        materials provided with the distribution. Publication is not required when
    38                           ;        this file is used in an embedded application.
    39                           ; 
    40                           ;     3. Microchip's name may not be used to endorse or promote products derived from th
      +                          is
    41                           ;        software without specific prior written permission.
    42                           ; 
    43                           ; THIS SOFTWARE IS PROVIDED BY MICROCHIP "AS IS" AND ANY EXPRESS OR IMPLIED WARRANTIES,
    44                           ; INCLUDING, BUT NOT LIMITED TO, THE IMPLIED WARRANTIES OF MERCHANTABILITY AND FITNESS F
      +                          OR
    45                           ; PURPOSE ARE DISCLAIMED.  IN NO EVENT SHALL MICROCHIP BE LIABLE FOR ANY DIRECT, INDIREC
      +                          T,
    46                           ; INCIDENTAL, SPECIAL, EXEMPLARY, OR CONSEQUENTIAL DAMAGES (INCLUDING BUT NOT LIMITED TO
    47                           ; PROCUREMENT OF SUBSTITUTE GOODS OR SERVICES; LOSS OF USE, DATA OR PROFITS; OR BUSINESS
    48                           ; INTERRUPTION) HOWSOEVER CAUSED AND ON ANY THEORY OF LIABILITY, WHETHER IN CONTRACT, ST
      +                          RICT
    49                           ; LIABILITY, OR TORT (INCLUDING NEGLIGENCE OR OTHERWISE) ARISING IN ANY WAY OUT OF THE U
      +                          SE OF
    50                           ; THIS SOFTWARE, EVEN IF ADVISED OF THE POSSIBILITY OF SUCH DAMAGE.
    51                           ; 
    52                           ; 
    53                           ; Code-generator required, PIC16F887 Definitions
    54                           ; 
    55                           ; SFR Addresses
    56     0000                     	;# 
    57     0001                     	;# 
    58     0002                     	;# 
    59     0003                     	;# 
    60     0004                     	;# 
    61     0005                     	;# 
    62     0006                     	;# 
    63     0007                     	;# 
    64     0008                     	;# 
    65     0009                     	;# 
    66     000A                     	;# 
    67     000B                     	;# 
    68     000C                     	;# 
    69     000D                     	;# 
    70     000E                     	;# 
    71     000E                     	;# 
    72     000F                     	;# 
    73     0010                     	;# 
    74     0011                     	;# 
    75     0012                     	;# 
    76     0013                     	;# 
    77     0014                     	;# 
    78     0015                     	;# 
    79     0015                     	;# 
    80     0016                     	;# 
    81     0017                     	;# 
    82     0018                     	;# 
    83     0019                     	;# 
    84     001A                     	;# 
    85     001B                     	;# 
    86     001B                     	;# 
    87     001C                     	;# 
    88     001D                     	;# 
    89     001E                     	;# 
    90     001F                     	;# 
    91     0081                     	;# 
    92     0085                     	;# 
    93     0086                     	;# 
    94     0087                     	;# 
    95     0088                     	;# 
    96     0089                     	;# 
    97     008C                     	;# 
    98     008D                     	;# 
    99     008E                     	;# 
   100     008F                     	;# 
   101     0090                     	;# 
   102     0091                     	;# 
   103     0092                     	;# 
   104     0093                     	;# 
   105     0093                     	;# 
   106     0093                     	;# 
   107     0094                     	;# 
   108     0095                     	;# 
   109     0096                     	;# 
   110     0097                     	;# 
   111     0098                     	;# 
   112     0099                     	;# 
   113     009A                     	;# 
   114     009B                     	;# 
   115     009C                     	;# 
   116     009D                     	;# 
   117     009E                     	;# 
   118     009F                     	;# 
   119     0105                     	;# 
   120     0107                     	;# 
   121     0108                     	;# 
   122     0109                     	;# 
   123     010C                     	;# 
   124     010C                     	;# 
   125     010D                     	;# 
   126     010E                     	;# 
   127     010F                     	;# 
   128     0185                     	;# 
   129     0187                     	;# 
   130     0188                     	;# 
   131     0189                     	;# 
   132     018C                     	;# 
   133     018D                     	;# 
   134     0000                     	;# 
   135     0001                     	;# 
   136     0002                     	;# 
   137     0003                     	;# 
   138     0004                     	;# 
   139     0005                     	;# 
   140     0006                     	;# 
   141     0007                     	;# 
   142     0008                     	;# 
   143     0009                     	;# 
   144     000A                     	;# 
   145     000B                     	;# 
   146     000C                     	;# 
   147     000D                     	;# 
   148     000E                     	;# 
   149     000E                     	;# 
   150     000F                     	;# 
   151     0010                     	;# 
   152     0011                     	;# 
   153     0012                     	;# 
   154     0013                     	;# 
   155     0014                     	;# 
   156     0015                     	;# 
   157     0015                     	;# 
   158     0016                     	;# 
   159     0017                     	;# 
   160     0018                     	;# 
   161     0019                     	;# 
   162     001A                     	;# 
   163     001B                     	;# 
   164     001B                     	;# 
   165     001C                     	;# 
   166     001D                     	;# 
   167     001E                     	;# 
   168     001F                     	;# 
   169     0081                     	;# 
   170     0085                     	;# 
   171     0086                     	;# 
   172     0087                     	;# 
   173     0088                     	;# 
   174     0089                     	;# 
   175     008C                     	;# 
   176     008D                     	;# 
   177     008E                     	;# 
   178     008F                     	;# 
   179     0090                     	;# 
   180     0091                     	;# 
   181     0092                     	;# 
   182     0093                     	;# 
   183     0093                     	;# 
   184     0093                     	;# 
   185     0094                     	;# 
   186     0095                     	;# 
   187     0096                     	;# 
   188     0097                     	;# 
   189     0098                     	;# 
   190     0099                     	;# 
   191     009A                     	;# 
   192     009B                     	;# 
   193     009C                     	;# 
   194     009D                     	;# 
   195     009E                     	;# 
   196     009F                     	;# 
   197     0105                     	;# 
   198     0107                     	;# 
   199     0108                     	;# 
   200     0109                     	;# 
   201     010C                     	;# 
   202     010C                     	;# 
   203     010D                     	;# 
   204     010E                     	;# 
   205     010F                     	;# 
   206     0185                     	;# 
   207     0187                     	;# 
   208     0188                     	;# 
   209     0189                     	;# 
   210     018C                     	;# 
   211     018D                     	;# 
   212     0000                     	;# 
   213     0001                     	;# 
   214     0002                     	;# 
   215     0003                     	;# 
   216     0004                     	;# 
   217     0005                     	;# 
   218     0006                     	;# 
   219     0007                     	;# 
   220     0008                     	;# 
   221     0009                     	;# 
   222     000A                     	;# 
   223     000B                     	;# 
   224     000C                     	;# 
   225     000D                     	;# 
   226     000E                     	;# 
   227     000E                     	;# 
   228     000F                     	;# 
   229     0010                     	;# 
   230     0011                     	;# 
   231     0012                     	;# 
   232     0013                     	;# 
   233     0014                     	;# 
   234     0015                     	;# 
   235     0015                     	;# 
   236     0016                     	;# 
   237     0017                     	;# 
   238     0018                     	;# 
   239     0019                     	;# 
   240     001A                     	;# 
   241     001B                     	;# 
   242     001B                     	;# 
   243     001C                     	;# 
   244     001D                     	;# 
   245     001E                     	;# 
   246     001F                     	;# 
   247     0081                     	;# 
   248     0085                     	;# 
   249     0086                     	;# 
   250     0087                     	;# 
   251     0088                     	;# 
   252     0089                     	;# 
   253     008C                     	;# 
   254     008D                     	;# 
   255     008E                     	;# 
   256     008F                     	;# 
   257     0090                     	;# 
   258     0091                     	;# 
   259     0092                     	;# 
   260     0093                     	;# 
   261     0093                     	;# 
   262     0093                     	;# 
   263     0094                     	;# 
   264     0095                     	;# 
   265     0096                     	;# 
   266     0097                     	;# 
   267     0098                     	;# 
   268     0099                     	;# 
   269     009A                     	;# 
   270     009B                     	;# 
   271     009C                     	;# 
   272     009D                     	;# 
   273     009E                     	;# 
   274     009F                     	;# 
   275     0105                     	;# 
   276     0107                     	;# 
   277     0108                     	;# 
   278     0109                     	;# 
   279     010C                     	;# 
   280     010C                     	;# 
   281     010D                     	;# 
   282     010E                     	;# 
   283     010F                     	;# 
   284     0185                     	;# 
   285     0187                     	;# 
   286     0188                     	;# 
   287     0189                     	;# 
   288     018C                     	;# 
   289     018D                     	;# 
   290     000E                     _TMR1	set	14
   291     0014                     _SSPCON	set	20
   292     0008                     _PORTDbits	set	8
   293     0010                     _T1CONbits	set	16
   294     000B                     _INTCONbits	set	11
   295     0009                     _PORTE	set	9
   296     0006                     _PORTB	set	6
   297     0005                     _PORTA	set	5
   298     0008                     _PORTD	set	8
   299     0013                     _SSPBUF	set	19
   300     0014                     _SSPCONbits	set	20
   301     000C                     _PIR1bits	set	12
   302     0063                     _SSPIF	set	99
   303     005E                     _PEIE	set	94
   304     005F                     _GIE	set	95
   305     0091                     _SSPCON2bits	set	145
   306     0087                     _TRISCbits	set	135
   307     0094                     _SSPSTAT	set	148
   308     0093                     _SSPADD	set	147
   309     0091                     _SSPCON2	set	145
   310     008F                     _OSCCONbits	set	143
   311     008C                     _PIE1bits	set	140
   312     0089                     _TRISE	set	137
   313     0088                     _TRISD	set	136
   314     0086                     _TRISB	set	134
   315     0085                     _TRISA	set	133
   316     0094                     _SSPSTATbits	set	148
   317     0463                     _SSPIE	set	1123
   318     0189                     _ANSELH	set	393
   319     0188                     _ANSEL	set	392
   320                           
   321                           	psect	cinit
   322     0013                     start_initialization:	
   323                           ; #config settings
   324                           
   325     0013                     __initialization:
   326                           
   327                           ; Clear objects allocated to BANK0
   328     0013  1283               	bcf	3,5	;RP0=0, select bank0
   329     0014  1303               	bcf	3,6	;RP1=0, select bank0
   330     0015  01B4               	clrf	__pbssBANK0& (0+127)
   331     0016  01B5               	clrf	(__pbssBANK0+1)& (0+127)
   332     0017  01B6               	clrf	(__pbssBANK0+2)& (0+127)
   333     0018  01B7               	clrf	(__pbssBANK0+3)& (0+127)
   334     0019  01B8               	clrf	(__pbssBANK0+4)& (0+127)
   335     001A  01B9               	clrf	(__pbssBANK0+5)& (0+127)
   336     001B  01BA               	clrf	(__pbssBANK0+6)& (0+127)
   337     001C  01BB               	clrf	(__pbssBANK0+7)& (0+127)
   338     001D  01BC               	clrf	(__pbssBANK0+8)& (0+127)
   339     001E  01BD               	clrf	(__pbssBANK0+9)& (0+127)
   340     001F  01BE               	clrf	(__pbssBANK0+10)& (0+127)
   341     0020                     end_of_initialization:	
   342                           ;End of C runtime variable initialization code
   343                           
   344     0020                     __end_of__initialization:
   345     0020  0183               	clrf	3
   346     0021  120A  118A  2C83   	ljmp	_main	;jump to C main() function
   347                           
   348                           	psect	bssBANK0
   349     0034                     __pbssBANK0:
   350     0034                     _duration:
   351     0034                     	ds	4
   352     0038                     _distance_cm:
   353     0038                     	ds	4
   354     003C                     _proximity:
   355     003C                     	ds	2
   356     003E                     _z:
   357     003E                     	ds	1
   358                           
   359                           	psect	cstackCOMMON
   360     0070                     __pcstackCOMMON:
   361     0070                     ?___flge:
   362     0070                     ?_readUpdate:	
   363                           ; 1 bit 
   364                           
   365     0070                     ?_setup:	
   366                           ; 1 bytes @ 0x0
   367                           
   368     0070                     ?_I2C_Slave_Init:	
   369                           ; 1 bytes @ 0x0
   370                           
   371     0070                     ?_isr:	
   372                           ; 1 bytes @ 0x0
   373                           
   374     0070                     ?_main:	
   375                           ; 1 bytes @ 0x0
   376                           
   377     0070                     ?___fldiv:	
   378                           ; 1 bytes @ 0x0
   379                           
   380     0070                     ?___xxtofl:	
   381                           ; 4 bytes @ 0x0
   382                           
   383     0070                     ___flge@ff1:	
   384                           ; 4 bytes @ 0x0
   385                           
   386     0070                     ___fldiv@a:	
   387                           ; 4 bytes @ 0x0
   388                           
   389     0070                     ___xxtofl@val:	
   390                           ; 4 bytes @ 0x0
   391                           
   392                           
   393                           ; 4 bytes @ 0x0
   394     0070                     	ds	4
   395     0074                     ??___xxtofl:
   396     0074                     ___flge@ff2:	
   397                           ; 1 bytes @ 0x4
   398                           
   399     0074                     ___fldiv@b:	
   400                           ; 4 bytes @ 0x4
   401                           
   402                           
   403                           ; 4 bytes @ 0x4
   404     0074                     	ds	4
   405     0078                     ??___flge:
   406     0078                     ??___fldiv:	
   407                           ; 1 bytes @ 0x8
   408                           
   409     0078                     ___xxtofl@sign:	
   410                           ; 1 bytes @ 0x8
   411                           
   412                           
   413                           ; 1 bytes @ 0x8
   414     0078                     	ds	1
   415     0079                     ___xxtofl@exp:
   416                           
   417                           ; 1 bytes @ 0x9
   418     0079                     	ds	1
   419     007A                     ___xxtofl@arg:
   420                           
   421                           ; 4 bytes @ 0xA
   422     007A                     	ds	4
   423                           
   424                           	psect	cstackBANK0
   425     0020                     __pcstackBANK0:
   426     0020                     ___fldiv@rem:
   427                           
   428                           ; 4 bytes @ 0x0
   429     0020                     	ds	4
   430     0024                     ___fldiv@sign:
   431                           
   432                           ; 1 bytes @ 0x4
   433     0024                     	ds	1
   434     0025                     ___fldiv@new_exp:
   435                           
   436                           ; 2 bytes @ 0x5
   437     0025                     	ds	2
   438     0027                     ___fldiv@grs:
   439                           
   440                           ; 4 bytes @ 0x7
   441     0027                     	ds	4
   442     002B                     ___fldiv@bexp:
   443                           
   444                           ; 1 bytes @ 0xB
   445     002B                     	ds	1
   446     002C                     ___fldiv@aexp:
   447                           
   448                           ; 1 bytes @ 0xC
   449     002C                     	ds	1
   450     002D                     ??_readUpdate:
   451                           
   452                           ; 1 bytes @ 0xD
   453     002D                     	ds	2
   454     002F                     ??_isr:
   455                           
   456                           ; 1 bytes @ 0xF
   457     002F                     	ds	4
   458     0033                     ??_I2C_Slave_Init:
   459     0033                     I2C_Slave_Init@address:	
   460                           ; 1 bytes @ 0x13
   461                           
   462                           
   463                           ; 1 bytes @ 0x13
   464     0033                     	ds	1
   465     0034                     ??_setup:
   466     0034                     ??_main:	
   467                           ; 1 bytes @ 0x14
   468                           
   469                           
   470                           	psect	maintext
   471     0483                     __pmaintext:	
   472                           ; 1 bytes @ 0x14
   473 ;;
   474 ;;Main: autosize = 0, tempsize = 0, incstack = 0, save=0
   475 ;;
   476 ;; *************** function _main *****************
   477 ;; Defined at:
   478 ;;		line 98 in file "main.c"
   479 ;; Parameters:    Size  Location     Type
   480 ;;		None
   481 ;; Auto vars:     Size  Location     Type
   482 ;;		None
   483 ;; Return value:  Size  Location     Type
   484 ;;                  1    wreg      void 
   485 ;; Registers used:
   486 ;;		wreg, status,2, status,0, pclath, cstack
   487 ;; Tracked objects:
   488 ;;		On entry : B00/0
   489 ;;		On exit  : 0/0
   490 ;;		Unchanged: 0/0
   491 ;; Data sizes:     COMMON   BANK0   BANK1   BANK3   BANK2
   492 ;;      Params:         0       0       0       0       0
   493 ;;      Locals:         0       0       0       0       0
   494 ;;      Temps:          0       0       0       0       0
   495 ;;      Totals:         0       0       0       0       0
   496 ;;Total ram usage:        0 bytes
   497 ;; Hardware stack levels required when called: 5
   498 ;; This function calls:
   499 ;;		_setup
   500 ;; This function is called by:
   501 ;;		Startup code after reset
   502 ;; This function uses a non-reentrant model
   503 ;;
   504                           
   505     0483                     _main:	
   506                           ;psect for function _main
   507                           
   508     0483                     l1441:	
   509                           ;incstack = 0
   510                           ; Regs used in _main: [wreg+status,2+status,0+pclath+cstack]
   511                           
   512                           
   513                           ;main.c: 99:     setup();
   514     0483  120A  118A  2435  120A  118A  	fcall	_setup
   515     0488                     l79:	
   516                           ;main.c: 100:     while(1){
   517                           
   518     0488                     l80:	
   519                           ;main.c: 102:     }
   520                           
   521     0488  2C88               	goto	l79
   522     0489  120A  118A  2810   	ljmp	start
   523     048C                     __end_of_main:
   524                           
   525                           	psect	text1
   526     0435                     __ptext1:	
   527 ;; *************** function _setup *****************
   528 ;; Defined at:
   529 ;;		line 110 in file "main.c"
   530 ;; Parameters:    Size  Location     Type
   531 ;;		None
   532 ;; Auto vars:     Size  Location     Type
   533 ;;		None
   534 ;; Return value:  Size  Location     Type
   535 ;;                  1    wreg      void 
   536 ;; Registers used:
   537 ;;		wreg, status,2, status,0, pclath, cstack
   538 ;; Tracked objects:
   539 ;;		On entry : 0/0
   540 ;;		On exit  : 0/0
   541 ;;		Unchanged: 0/0
   542 ;; Data sizes:     COMMON   BANK0   BANK1   BANK3   BANK2
   543 ;;      Params:         0       0       0       0       0
   544 ;;      Locals:         0       0       0       0       0
   545 ;;      Temps:          0       0       0       0       0
   546 ;;      Totals:         0       0       0       0       0
   547 ;;Total ram usage:        0 bytes
   548 ;; Hardware stack levels used: 1
   549 ;; Hardware stack levels required when called: 4
   550 ;; This function calls:
   551 ;;		_I2C_Slave_Init
   552 ;; This function is called by:
   553 ;;		_main
   554 ;; This function uses a non-reentrant model
   555 ;;
   556                           
   557     0435                     _setup:	
   558                           ;psect for function _setup
   559                           
   560     0435                     l1357:	
   561                           ;incstack = 0
   562                           ; Regs used in _setup: [wreg+status,2+status,0+pclath+cstack]
   563                           
   564                           
   565                           ;main.c: 113:     ANSEL = 0b00000000;
   566     0435  1683               	bsf	3,5	;RP0=1, select bank3
   567     0436  1703               	bsf	3,6	;RP1=1, select bank3
   568     0437  0188               	clrf	8	;volatile
   569                           
   570                           ;main.c: 114:     ANSELH = 0;
   571     0438  0189               	clrf	9	;volatile
   572                           
   573                           ;main.c: 117:     TRISA = 0b00000000;
   574     0439  1683               	bsf	3,5	;RP0=1, select bank1
   575     043A  1303               	bcf	3,6	;RP1=0, select bank1
   576     043B  0185               	clrf	5	;volatile
   577                           
   578                           ;main.c: 118:     TRISB = 0b00000000;
   579     043C  0186               	clrf	6	;volatile
   580     043D                     l1359:
   581                           
   582                           ;main.c: 120:     TRISD = 0b00000010;
   583     043D  3002               	movlw	2
   584     043E  0088               	movwf	8	;volatile
   585     043F                     l1361:
   586                           
   587                           ;main.c: 121:     TRISE = 0b00000000;
   588     043F  0189               	clrf	9	;volatile
   589     0440                     l1363:
   590                           
   591                           ;main.c: 123:     PORTA = 0b00000000;
   592     0440  1283               	bcf	3,5	;RP0=0, select bank0
   593     0441  1303               	bcf	3,6	;RP1=0, select bank0
   594     0442  0185               	clrf	5	;volatile
   595     0443                     l1365:
   596                           
   597                           ;main.c: 124:     PORTB = 0b00000000;
   598     0443  0186               	clrf	6	;volatile
   599     0444                     l1367:
   600                           
   601                           ;main.c: 126:     PORTD = 0b00000000;
   602     0444  0188               	clrf	8	;volatile
   603     0445                     l1369:
   604                           
   605                           ;main.c: 127:     PORTE = 0b00000000;
   606     0445  0189               	clrf	9	;volatile
   607     0446                     l1371:
   608                           
   609                           ;main.c: 130:     INTCONbits.GIE = 1;
   610     0446  178B               	bsf	11,7	;volatile
   611     0447                     l1373:
   612                           
   613                           ;main.c: 131:     INTCONbits.PEIE = 1;
   614     0447  170B               	bsf	11,6	;volatile
   615     0448                     l1375:
   616                           
   617                           ;main.c: 132:     PIE1bits.SSPIE = 0;
   618     0448  1683               	bsf	3,5	;RP0=1, select bank1
   619     0449  1303               	bcf	3,6	;RP1=0, select bank1
   620     044A  118C               	bcf	12,3	;volatile
   621     044B                     l1377:
   622                           
   623                           ;main.c: 133:     PIE1bits.ADIE = 0;
   624     044B  130C               	bcf	12,6	;volatile
   625     044C                     l1379:
   626                           
   627                           ;main.c: 136:     INTCONbits.TMR0IE = 0;
   628     044C  128B               	bcf	11,5	;volatile
   629     044D                     l1381:
   630                           
   631                           ;main.c: 138:     PIR1bits.SSPIF = 0;
   632     044D  1283               	bcf	3,5	;RP0=0, select bank0
   633     044E  1303               	bcf	3,6	;RP1=0, select bank0
   634     044F  118C               	bcf	12,3	;volatile
   635     0450                     l1383:
   636                           
   637                           ;main.c: 139:     PIR1bits.ADIF = 0;
   638     0450  130C               	bcf	12,6	;volatile
   639     0451                     l1385:
   640                           
   641                           ;main.c: 140:     INTCONbits.RBIF = 0;
   642     0451  100B               	bcf	11,0	;volatile
   643     0452                     l1387:
   644                           
   645                           ;main.c: 141:     INTCONbits.T0IF = 0;
   646     0452  110B               	bcf	11,2	;volatile
   647     0453                     l1389:
   648                           
   649                           ;main.c: 145:     OSCCONbits.IRCF = 0b100;
   650     0453  1683               	bsf	3,5	;RP0=1, select bank1
   651     0454  1303               	bcf	3,6	;RP1=0, select bank1
   652     0455  080F               	movf	15,w	;volatile
   653     0456  398F               	andlw	-113
   654     0457  3840               	iorlw	64
   655     0458  008F               	movwf	15	;volatile
   656     0459                     l1391:
   657                           
   658                           ;main.c: 146:     OSCCONbits.SCS = 1;
   659     0459  140F               	bsf	15,0	;volatile
   660     045A                     l1393:
   661                           
   662                           ;main.c: 149:     T1CONbits.TMR1CS = 0;
   663     045A  1283               	bcf	3,5	;RP0=0, select bank0
   664     045B  1303               	bcf	3,6	;RP1=0, select bank0
   665     045C  1090               	bcf	16,1	;volatile
   666     045D                     l1395:
   667                           
   668                           ;main.c: 150:     T1CONbits.T1CKPS = 0b00;
   669     045D  30CF               	movlw	-49
   670     045E  0590               	andwf	16,f	;volatile
   671     045F                     l1397:
   672                           
   673                           ;main.c: 151:     T1CONbits.TMR1ON = 0;
   674     045F  1010               	bcf	16,0	;volatile
   675     0460                     l1399:
   676                           
   677                           ;main.c: 156:     I2C_Slave_Init(0x50);
   678     0460  3050               	movlw	80
   679     0461  120A  118A  2467  120A  118A  	fcall	_I2C_Slave_Init
   680     0466                     l85:
   681     0466  0008               	return
   682     0467                     __end_of_setup:
   683                           
   684                           	psect	text2
   685     0467                     __ptext2:	
   686 ;; *************** function _I2C_Slave_Init *****************
   687 ;; Defined at:
   688 ;;		line 90 in file "IIC.c"
   689 ;; Parameters:    Size  Location     Type
   690 ;;  address         1    wreg     unsigned char 
   691 ;; Auto vars:     Size  Location     Type
   692 ;;  address         1   19[BANK0 ] unsigned char 
   693 ;; Return value:  Size  Location     Type
   694 ;;                  1    wreg      void 
   695 ;; Registers used:
   696 ;;		wreg
   697 ;; Tracked objects:
   698 ;;		On entry : 0/0
   699 ;;		On exit  : 0/0
   700 ;;		Unchanged: 0/0
   701 ;; Data sizes:     COMMON   BANK0   BANK1   BANK3   BANK2
   702 ;;      Params:         0       0       0       0       0
   703 ;;      Locals:         0       1       0       0       0
   704 ;;      Temps:          0       0       0       0       0
   705 ;;      Totals:         0       1       0       0       0
   706 ;;Total ram usage:        1 bytes
   707 ;; Hardware stack levels used: 1
   708 ;; Hardware stack levels required when called: 3
   709 ;; This function calls:
   710 ;;		Nothing
   711 ;; This function is called by:
   712 ;;		_setup
   713 ;; This function uses a non-reentrant model
   714 ;;
   715                           
   716     0467                     _I2C_Slave_Init:	
   717                           ;psect for function _I2C_Slave_Init
   718                           
   719                           
   720                           ;incstack = 0
   721                           ; Regs used in _I2C_Slave_Init: [wreg]
   722                           ;I2C_Slave_Init@address stored from wreg
   723     0467  1283               	bcf	3,5	;RP0=0, select bank0
   724     0468  1303               	bcf	3,6	;RP1=0, select bank0
   725     0469  00B3               	movwf	I2C_Slave_Init@address
   726     046A                     l1121:
   727                           
   728                           ;IIC.c: 90: void I2C_Slave_Init(uint8_t address);IIC.c: 91: {;IIC.c: 92:     SSPADD = ad
      +                          dress;
   729     046A  0833               	movf	I2C_Slave_Init@address,w
   730     046B  1683               	bsf	3,5	;RP0=1, select bank1
   731     046C  1303               	bcf	3,6	;RP1=0, select bank1
   732     046D  0093               	movwf	19	;volatile
   733                           
   734                           ;IIC.c: 93:     SSPCON = 0x36;
   735     046E  3036               	movlw	54
   736     046F  1283               	bcf	3,5	;RP0=0, select bank0
   737     0470  1303               	bcf	3,6	;RP1=0, select bank0
   738     0471  0094               	movwf	20	;volatile
   739                           
   740                           ;IIC.c: 94:     SSPSTAT = 0x80;
   741     0472  3080               	movlw	128
   742     0473  1683               	bsf	3,5	;RP0=1, select bank1
   743     0474  1303               	bcf	3,6	;RP1=0, select bank1
   744     0475  0094               	movwf	20	;volatile
   745                           
   746                           ;IIC.c: 95:     SSPCON2 = 0x01;
   747     0476  3001               	movlw	1
   748     0477  0091               	movwf	17	;volatile
   749     0478                     l1123:
   750                           
   751                           ;IIC.c: 96:     TRISCbits.TRISC3 = 1;
   752     0478  1587               	bsf	7,3	;volatile
   753     0479                     l1125:
   754                           
   755                           ;IIC.c: 97:     TRISCbits.TRISC4 = 1;
   756     0479  1607               	bsf	7,4	;volatile
   757     047A                     l1127:
   758                           
   759                           ;IIC.c: 98:     GIE = 1;
   760     047A  178B               	bsf	11,7	;volatile
   761     047B                     l1129:
   762                           
   763                           ;IIC.c: 99:     PEIE = 1;
   764     047B  170B               	bsf	11,6	;volatile
   765     047C                     l1131:
   766                           
   767                           ;IIC.c: 100:     SSPIF = 0;
   768     047C  1283               	bcf	3,5	;RP0=0, select bank0
   769     047D  1303               	bcf	3,6	;RP1=0, select bank0
   770     047E  118C               	bcf	12,3	;volatile
   771     047F                     l1133:
   772                           
   773                           ;IIC.c: 101:     SSPIE = 1;
   774     047F  1683               	bsf	3,5	;RP0=1, select bank1
   775     0480  1303               	bcf	3,6	;RP1=0, select bank1
   776     0481  158C               	bsf	12,3	;volatile
   777     0482                     l147:
   778     0482  0008               	return
   779     0483                     __end_of_I2C_Slave_Init:
   780                           
   781                           	psect	text3
   782     03CF                     __ptext3:	
   783 ;; *************** function _isr *****************
   784 ;; Defined at:
   785 ;;		line 56 in file "main.c"
   786 ;; Parameters:    Size  Location     Type
   787 ;;		None
   788 ;; Auto vars:     Size  Location     Type
   789 ;;		None
   790 ;; Return value:  Size  Location     Type
   791 ;;                  1    wreg      void 
   792 ;; Registers used:
   793 ;;		wreg, status,2, status,0, btemp+1, pclath, cstack
   794 ;; Tracked objects:
   795 ;;		On entry : 0/0
   796 ;;		On exit  : 0/0
   797 ;;		Unchanged: 0/0
   798 ;; Data sizes:     COMMON   BANK0   BANK1   BANK3   BANK2
   799 ;;      Params:         0       0       0       0       0
   800 ;;      Locals:         0       0       0       0       0
   801 ;;      Temps:          0       4       0       0       0
   802 ;;      Totals:         0       4       0       0       0
   803 ;;Total ram usage:        4 bytes
   804 ;; Hardware stack levels used: 1
   805 ;; Hardware stack levels required when called: 2
   806 ;; This function calls:
   807 ;;		_readUpdate
   808 ;; This function is called by:
   809 ;;		Interrupt level 1
   810 ;; This function uses a non-reentrant model
   811 ;;
   812                           
   813     03CF                     _isr:	
   814                           ;psect for function _isr
   815                           
   816     03CF                     i1l1401:
   817                           
   818                           ;main.c: 59:     if (PIR1bits.SSPIF){
   819     03CF  1D8C               	btfss	12,3	;volatile
   820     03D0  2BD2               	goto	u122_21
   821     03D1  2BD3               	goto	u122_20
   822     03D2                     u122_21:
   823     03D2  2C2C               	goto	i1l74
   824     03D3                     u122_20:
   825     03D3                     i1l1403:
   826                           
   827                           ;main.c: 61:         SSPCONbits.CKP = 0;
   828     03D3  1214               	bcf	20,4	;volatile
   829                           
   830                           ;main.c: 63:         if ((SSPCONbits.SSPOV) || (SSPCONbits.WCOL)){
   831     03D4  1B14               	btfsc	20,6	;volatile
   832     03D5  2BD7               	goto	u123_21
   833     03D6  2BD8               	goto	u123_20
   834     03D7                     u123_21:
   835     03D7  2BDC               	goto	i1l1407
   836     03D8                     u123_20:
   837     03D8                     i1l1405:
   838     03D8  1F94               	btfss	20,7	;volatile
   839     03D9  2BDB               	goto	u124_21
   840     03DA  2BDC               	goto	u124_20
   841     03DB                     u124_21:
   842     03DB  2BE1               	goto	i1l1415
   843     03DC                     u124_20:
   844     03DC                     i1l1407:
   845                           
   846                           ;main.c: 64:             z = SSPBUF;
   847     03DC  0813               	movf	19,w	;volatile
   848     03DD  00BE               	movwf	_z
   849     03DE                     i1l1409:
   850                           
   851                           ;main.c: 65:             SSPCONbits.SSPOV = 0;
   852     03DE  1314               	bcf	20,6	;volatile
   853     03DF                     i1l1411:
   854                           
   855                           ;main.c: 66:             SSPCONbits.WCOL = 0;
   856     03DF  1394               	bcf	20,7	;volatile
   857     03E0                     i1l1413:
   858                           
   859                           ;main.c: 67:             SSPCONbits.CKP = 1;
   860     03E0  1614               	bsf	20,4	;volatile
   861     03E1                     i1l1415:
   862                           
   863                           ;main.c: 70:         if(!SSPSTATbits.D_nA && !SSPSTATbits.R_nW) {
   864     03E1  1683               	bsf	3,5	;RP0=1, select bank1
   865     03E2  1303               	bcf	3,6	;RP1=0, select bank1
   866     03E3  1A94               	btfsc	20,5	;volatile
   867     03E4  2BE6               	goto	u125_21
   868     03E5  2BE7               	goto	u125_20
   869     03E6                     u125_21:
   870     03E6  2C03               	goto	i1l65
   871     03E7                     u125_20:
   872     03E7                     i1l1417:
   873     03E7  1914               	btfsc	20,2	;volatile
   874     03E8  2BEA               	goto	u126_21
   875     03E9  2BEB               	goto	u126_20
   876     03EA                     u126_21:
   877     03EA  2C03               	goto	i1l65
   878     03EB                     u126_20:
   879     03EB                     i1l1419:
   880                           
   881                           ;main.c: 71:             z = SSPBUF;
   882     03EB  1283               	bcf	3,5	;RP0=0, select bank0
   883     03EC  1303               	bcf	3,6	;RP1=0, select bank0
   884     03ED  0813               	movf	19,w	;volatile
   885     03EE  00BE               	movwf	_z
   886     03EF                     i1l1421:
   887                           
   888                           ;main.c: 72:             PIR1bits.SSPIF = 0;
   889     03EF  118C               	bcf	12,3	;volatile
   890     03F0                     i1l1423:
   891                           
   892                           ;main.c: 73:             SSPCONbits.CKP = 1;
   893     03F0  1614               	bsf	20,4	;volatile
   894     03F1                     i1l66:	
   895                           ;main.c: 74:             while(!SSPSTATbits.BF);
   896                           
   897     03F1  1683               	bsf	3,5	;RP0=1, select bank1
   898     03F2  1303               	bcf	3,6	;RP1=0, select bank1
   899     03F3  1C14               	btfss	20,0	;volatile
   900     03F4  2BF6               	goto	u127_21
   901     03F5  2BF7               	goto	u127_20
   902     03F6                     u127_21:
   903     03F6  2BF1               	goto	i1l66
   904     03F7                     u127_20:
   905     03F7                     i1l1425:
   906                           
   907                           ;main.c: 75:             PORTD = SSPBUF;
   908     03F7  1283               	bcf	3,5	;RP0=0, select bank0
   909     03F8  1303               	bcf	3,6	;RP1=0, select bank0
   910     03F9  0813               	movf	19,w	;volatile
   911     03FA  0088               	movwf	8	;volatile
   912                           
   913                           ;main.c: 76:             _delay((unsigned long)((250)*(1000000/4000000.0)));
   914     03FB  3013               	movlw	19
   915     03FC  1283               	bcf	3,5	;RP0=0, select bank0
   916     03FD  1303               	bcf	3,6	;RP1=0, select bank0
   917     03FE  00AF               	movwf	??_isr
   918     03FF                     u131_27:
   919     03FF  0BAF               	decfsz	??_isr,f
   920     0400  2BFF               	goto	u131_27
   921     0401  2C02               	nop2
   922                           
   923                           ;main.c: 78:         }
   924     0402  2C29               	goto	i1l69
   925     0403                     i1l65:	
   926                           ;main.c: 80:         else if(!SSPSTATbits.D_nA && SSPSTATbits.R_nW){
   927                           
   928     0403  1A94               	btfsc	20,5	;volatile
   929     0404  2C06               	goto	u128_21
   930     0405  2C07               	goto	u128_20
   931     0406                     u128_21:
   932     0406  2C29               	goto	i1l69
   933     0407                     u128_20:
   934     0407                     i1l1427:
   935     0407  1D14               	btfss	20,2	;volatile
   936     0408  2C0A               	goto	u129_21
   937     0409  2C0B               	goto	u129_20
   938     040A                     u129_21:
   939     040A  2C29               	goto	i1l69
   940     040B                     u129_20:
   941     040B                     i1l1429:
   942                           
   943                           ;main.c: 81:             z = SSPBUF;
   944     040B  1283               	bcf	3,5	;RP0=0, select bank0
   945     040C  1303               	bcf	3,6	;RP1=0, select bank0
   946     040D  0813               	movf	19,w	;volatile
   947     040E  00BE               	movwf	_z
   948     040F                     i1l1431:
   949                           
   950                           ;main.c: 82:             SSPSTATbits.BF = 0;
   951     040F  1683               	bsf	3,5	;RP0=1, select bank1
   952     0410  1303               	bcf	3,6	;RP1=0, select bank1
   953     0411  1014               	bcf	20,0	;volatile
   954     0412                     i1l1433:
   955                           
   956                           ;main.c: 83:             readUpdate();
   957     0412  120A  118A  2357  120A  118A  	fcall	_readUpdate
   958     0417                     i1l1435:
   959                           
   960                           ;main.c: 84:             SSPBUF = proximity;
   961     0417  1283               	bcf	3,5	;RP0=0, select bank0
   962     0418  1303               	bcf	3,6	;RP1=0, select bank0
   963     0419  083C               	movf	_proximity,w
   964     041A  0093               	movwf	19	;volatile
   965     041B                     i1l1437:
   966                           
   967                           ;main.c: 85:             SSPCONbits.CKP = 1;
   968     041B  1614               	bsf	20,4	;volatile
   969     041C                     i1l1439:
   970                           
   971                           ;main.c: 86:             _delay((unsigned long)((250)*(1000000/4000000.0)));
   972     041C  3013               	movlw	19
   973     041D  1283               	bcf	3,5	;RP0=0, select bank0
   974     041E  1303               	bcf	3,6	;RP1=0, select bank0
   975     041F  00AF               	movwf	??_isr
   976     0420                     u132_27:
   977     0420  0BAF               	decfsz	??_isr,f
   978     0421  2C20               	goto	u132_27
   979     0422  2C23               	nop2
   980     0423                     i1l71:	
   981                           ;main.c: 87:             while(SSPSTATbits.BF);
   982                           
   983     0423  1683               	bsf	3,5	;RP0=1, select bank1
   984     0424  1303               	bcf	3,6	;RP1=0, select bank1
   985     0425  1814               	btfsc	20,0	;volatile
   986     0426  2C28               	goto	u130_21
   987     0427  2C29               	goto	u130_20
   988     0428                     u130_21:
   989     0428  2C23               	goto	i1l71
   990     0429                     u130_20:
   991     0429                     i1l69:
   992                           
   993                           ;main.c: 90:         PIR1bits.SSPIF = 0;
   994     0429  1283               	bcf	3,5	;RP0=0, select bank0
   995     042A  1303               	bcf	3,6	;RP1=0, select bank0
   996     042B  118C               	bcf	12,3	;volatile
   997     042C                     i1l74:
   998     042C  0832               	movf	??_isr+3,w
   999     042D  00FF               	movwf	btemp+1
  1000     042E  0831               	movf	??_isr+2,w
  1001     042F  008A               	movwf	10
  1002     0430  0E30               	swapf	??_isr+1,w
  1003     0431  0083               	movwf	3
  1004     0432  0EFE               	swapf	btemp,f
  1005     0433  0E7E               	swapf	btemp,w
  1006     0434  0009               	retfie
  1007     0435                     __end_of_isr:
  1008                           
  1009                           	psect	intentry
  1010     0004                     __pintentry:	
  1011                           ;incstack = 0
  1012                           ; Regs used in _isr: [wreg+status,2+status,0+btemp+1+pclath+cstack]
  1013                           
  1014     0004                     interrupt_function:
  1015     007E                     saved_w	set	btemp
  1016     0004  00FE               	movwf	btemp
  1017     0005  0E03               	swapf	3,w
  1018     0006  1283               	bcf	3,5	;RP0=0, select bank0
  1019     0007  1303               	bcf	3,6	;RP1=0, select bank0
  1020     0008  00B0               	movwf	??_isr+1
  1021     0009  080A               	movf	10,w
  1022     000A  00B1               	movwf	??_isr+2
  1023     000B  087F               	movf	btemp+1,w
  1024     000C  00B2               	movwf	??_isr+3
  1025     000D  120A  118A  2BCF   	ljmp	_isr
  1026                           
  1027                           	psect	text4
  1028     0357                     __ptext4:	
  1029 ;; *************** function _readUpdate *****************
  1030 ;; Defined at:
  1031 ;;		line 159 in file "main.c"
  1032 ;; Parameters:    Size  Location     Type
  1033 ;;		None
  1034 ;; Auto vars:     Size  Location     Type
  1035 ;;		None
  1036 ;; Return value:  Size  Location     Type
  1037 ;;                  1    wreg      void 
  1038 ;; Registers used:
  1039 ;;		wreg, status,2, status,0, btemp+1, pclath, cstack
  1040 ;; Tracked objects:
  1041 ;;		On entry : 0/0
  1042 ;;		On exit  : 0/0
  1043 ;;		Unchanged: 0/0
  1044 ;; Data sizes:     COMMON   BANK0   BANK1   BANK3   BANK2
  1045 ;;      Params:         0       0       0       0       0
  1046 ;;      Locals:         0       0       0       0       0
  1047 ;;      Temps:          0       2       0       0       0
  1048 ;;      Totals:         0       2       0       0       0
  1049 ;;Total ram usage:        2 bytes
  1050 ;; Hardware stack levels used: 1
  1051 ;; Hardware stack levels required when called: 1
  1052 ;; This function calls:
  1053 ;;		___fldiv
  1054 ;;		___flge
  1055 ;;		___xxtofl
  1056 ;; This function is called by:
  1057 ;;		_isr
  1058 ;; This function uses a non-reentrant model
  1059 ;;
  1060                           
  1061     0357                     _readUpdate:	
  1062                           ;psect for function _readUpdate
  1063                           
  1064     0357                     i1l1341:	
  1065                           ;incstack = 0
  1066                           ; Regs used in _readUpdate: [wreg+status,2+status,0+btemp+1+pclath+cstack]
  1067                           
  1068                           
  1069                           ;main.c: 160:     PORTDbits.RD0 = 1;
  1070     0357  1283               	bcf	3,5	;RP0=0, select bank0
  1071     0358  1303               	bcf	3,6	;RP1=0, select bank0
  1072     0359  1408               	bsf	8,0	;volatile
  1073                           
  1074                           ;main.c: 161:     _delay((unsigned long)((10)*(1000000/4000000.0)));
  1075     035A  2B5B               	nop2	;2 cycle nop
  1076                           
  1077                           ;main.c: 162:     PORTDbits.RD0 = 0;
  1078     035B  1283               	bcf	3,5	;RP0=0, select bank0
  1079     035C  1303               	bcf	3,6	;RP1=0, select bank0
  1080     035D  1008               	bcf	8,0	;volatile
  1081     035E                     i1l1343:
  1082                           
  1083                           ;main.c: 164:     TMR1 = 0;
  1084     035E  018E               	clrf	14	;volatile
  1085     035F  018F               	clrf	15	;volatile
  1086     0360                     i1l88:	
  1087                           ;main.c: 168:     }
  1088                           
  1089                           
  1090                           ;main.c: 166:     while (!PORTDbits.RD1){
  1091     0360  1C88               	btfss	8,1	;volatile
  1092     0361  2B63               	goto	u119_21
  1093     0362  2B64               	goto	u119_20
  1094     0363                     u119_21:
  1095     0363  2B60               	goto	i1l88
  1096     0364                     u119_20:
  1097     0364                     i1l90:
  1098                           
  1099                           ;main.c: 170:     T1CONbits.TMR1ON = 1;
  1100     0364  1410               	bsf	16,0	;volatile
  1101     0365                     i1l91:	
  1102                           ;main.c: 174:     }
  1103                           
  1104                           
  1105                           ;main.c: 172:     while (PORTDbits.RD1){
  1106     0365  1888               	btfsc	8,1	;volatile
  1107     0366  2B68               	goto	u120_21
  1108     0367  2B69               	goto	u120_20
  1109     0368                     u120_21:
  1110     0368  2B65               	goto	i1l91
  1111     0369                     u120_20:
  1112     0369                     i1l93:
  1113                           
  1114                           ;main.c: 176:     T1CONbits.TMR1ON = 0;
  1115     0369  1010               	bcf	16,0	;volatile
  1116     036A                     i1l1345:
  1117                           
  1118                           ;main.c: 178:     duration = TMR1;
  1119     036A  080E               	movf	14,w	;volatile
  1120     036B  00F0               	movwf	___xxtofl@val
  1121     036C  080F               	movf	15,w	;volatile
  1122     036D  00F1               	movwf	___xxtofl@val+1
  1123     036E  01F2               	clrf	___xxtofl@val+2
  1124     036F  01F3               	clrf	___xxtofl@val+3
  1125     0370  3000               	movlw	0
  1126     0371  120A  118A  21FD  120A  118A  	fcall	___xxtofl
  1127     0376  0873               	movf	?___xxtofl+3,w
  1128     0377  1283               	bcf	3,5	;RP0=0, select bank0
  1129     0378  1303               	bcf	3,6	;RP1=0, select bank0
  1130     0379  00B7               	movwf	_duration+3
  1131     037A  0872               	movf	?___xxtofl+2,w
  1132     037B  00B6               	movwf	_duration+2
  1133     037C  0871               	movf	?___xxtofl+1,w
  1134     037D  00B5               	movwf	_duration+1
  1135     037E  0870               	movf	?___xxtofl,w
  1136     037F  00B4               	movwf	_duration
  1137     0380                     i1l1347:
  1138                           
  1139                           ;main.c: 179:     distance_cm = duration/58.8;
  1140     0380  3042               	movlw	66
  1141     0381  00F3               	movwf	___fldiv@a+3
  1142     0382  306B               	movlw	107
  1143     0383  00F2               	movwf	___fldiv@a+2
  1144     0384  3033               	movlw	51
  1145     0385  00F1               	movwf	___fldiv@a+1
  1146     0386  3033               	movlw	51
  1147     0387  00F0               	movwf	___fldiv@a
  1148     0388  0837               	movf	_duration+3,w
  1149     0389  00F7               	movwf	___fldiv@b+3
  1150     038A  0836               	movf	_duration+2,w
  1151     038B  00F6               	movwf	___fldiv@b+2
  1152     038C  0835               	movf	_duration+1,w
  1153     038D  00F5               	movwf	___fldiv@b+1
  1154     038E  0834               	movf	_duration,w
  1155     038F  00F4               	movwf	___fldiv@b
  1156     0390  120A  118A  2024  120A  118A  	fcall	___fldiv
  1157     0395  0873               	movf	?___fldiv+3,w
  1158     0396  1283               	bcf	3,5	;RP0=0, select bank0
  1159     0397  1303               	bcf	3,6	;RP1=0, select bank0
  1160     0398  00BB               	movwf	_distance_cm+3
  1161     0399  0872               	movf	?___fldiv+2,w
  1162     039A  00BA               	movwf	_distance_cm+2
  1163     039B  0871               	movf	?___fldiv+1,w
  1164     039C  00B9               	movwf	_distance_cm+1
  1165     039D  0870               	movf	?___fldiv,w
  1166     039E  00B8               	movwf	_distance_cm
  1167     039F                     i1l1349:
  1168                           
  1169                           ;main.c: 181:     if (distance_cm < 5){
  1170     039F  083B               	movf	_distance_cm+3,w
  1171     03A0  00F3               	movwf	___flge@ff1+3
  1172     03A1  083A               	movf	_distance_cm+2,w
  1173     03A2  00F2               	movwf	___flge@ff1+2
  1174     03A3  0839               	movf	_distance_cm+1,w
  1175     03A4  00F1               	movwf	___flge@ff1+1
  1176     03A5  0838               	movf	_distance_cm,w
  1177     03A6  00F0               	movwf	___flge@ff1
  1178     03A7  3040               	movlw	64
  1179     03A8  00F7               	movwf	___flge@ff2+3
  1180     03A9  30A0               	movlw	160
  1181     03AA  00F6               	movwf	___flge@ff2+2
  1182     03AB  3000               	movlw	0
  1183     03AC  00F5               	movwf	___flge@ff2+1
  1184     03AD  3000               	movlw	0
  1185     03AE  00F4               	movwf	___flge@ff2
  1186     03AF  120A  118A  22B5  120A  118A  	fcall	___flge
  1187     03B4  1803               	btfsc	3,0
  1188     03B5  2BB7               	goto	u121_21
  1189     03B6  2BB8               	goto	u121_20
  1190     03B7                     u121_21:
  1191     03B7  2BBF               	goto	i1l1353
  1192     03B8                     u121_20:
  1193     03B8                     i1l1351:
  1194                           
  1195                           ;main.c: 182:         proximity = 1;
  1196     03B8  3001               	movlw	1
  1197     03B9  1283               	bcf	3,5	;RP0=0, select bank0
  1198     03BA  1303               	bcf	3,6	;RP1=0, select bank0
  1199     03BB  00BC               	movwf	_proximity
  1200     03BC  3000               	movlw	0
  1201     03BD  00BD               	movwf	_proximity+1
  1202                           
  1203                           ;main.c: 183:     }
  1204     03BE  2BC3               	goto	i1l1355
  1205     03BF                     i1l1353:
  1206                           
  1207                           ;main.c: 185:         proximity = 0;
  1208     03BF  1283               	bcf	3,5	;RP0=0, select bank0
  1209     03C0  1303               	bcf	3,6	;RP1=0, select bank0
  1210     03C1  01BC               	clrf	_proximity
  1211     03C2  01BD               	clrf	_proximity+1
  1212     03C3                     i1l1355:
  1213                           
  1214                           ;main.c: 188:     _delay((unsigned long)((100)*(1000000/4000.0)));
  1215     03C3  3021               	movlw	33
  1216     03C4  1283               	bcf	3,5	;RP0=0, select bank0
  1217     03C5  1303               	bcf	3,6	;RP1=0, select bank0
  1218     03C6  00AE               	movwf	??_readUpdate+1
  1219     03C7  3075               	movlw	117
  1220     03C8  00AD               	movwf	??_readUpdate
  1221     03C9                     u133_27:
  1222     03C9  0BAD               	decfsz	??_readUpdate,f
  1223     03CA  2BC9               	goto	u133_27
  1224     03CB  0BAE               	decfsz	??_readUpdate+1,f
  1225     03CC  2BC9               	goto	u133_27
  1226     03CD  2BCE               	nop2
  1227     03CE                     i1l96:
  1228     03CE  0008               	return
  1229     03CF                     __end_of_readUpdate:
  1230                           
  1231                           	psect	text5
  1232     01FD                     __ptext5:	
  1233 ;; *************** function ___xxtofl *****************
  1234 ;; Defined at:
  1235 ;;		line 10 in file "C:\Program Files\Microchip\xc8\v2.40\pic\sources\c90\common\xxtofl.c"
  1236 ;; Parameters:    Size  Location     Type
  1237 ;;  sign            1    wreg     unsigned char 
  1238 ;;  val             4    0[COMMON] long 
  1239 ;; Auto vars:     Size  Location     Type
  1240 ;;  sign            1    8[COMMON] unsigned char 
  1241 ;;  arg             4   10[COMMON] unsigned long 
  1242 ;;  exp             1    9[COMMON] unsigned char 
  1243 ;; Return value:  Size  Location     Type
  1244 ;;                  4    0[COMMON] unsigned char 
  1245 ;; Registers used:
  1246 ;;		wreg, status,2, status,0
  1247 ;; Tracked objects:
  1248 ;;		On entry : 0/0
  1249 ;;		On exit  : 0/0
  1250 ;;		Unchanged: 0/0
  1251 ;; Data sizes:     COMMON   BANK0   BANK1   BANK3   BANK2
  1252 ;;      Params:         4       0       0       0       0
  1253 ;;      Locals:         6       0       0       0       0
  1254 ;;      Temps:          4       0       0       0       0
  1255 ;;      Totals:        14       0       0       0       0
  1256 ;;Total ram usage:       14 bytes
  1257 ;; Hardware stack levels used: 1
  1258 ;; This function calls:
  1259 ;;		Nothing
  1260 ;; This function is called by:
  1261 ;;		_readUpdate
  1262 ;; This function uses a non-reentrant model
  1263 ;;
  1264                           
  1265     01FD                     ___xxtofl:	
  1266                           ;psect for function ___xxtofl
  1267                           
  1268                           
  1269                           ;incstack = 0
  1270                           ; Regs used in ___xxtofl: [wreg+status,2+status,0]
  1271                           ;___xxtofl@sign stored from wreg
  1272     01FD  00F8               	movwf	___xxtofl@sign
  1273     01FE                     i1l1297:
  1274     01FE  0878               	movf	___xxtofl@sign,w
  1275     01FF  1903               	btfsc	3,2
  1276     0200  2A02               	goto	u105_21
  1277     0201  2A03               	goto	u105_20
  1278     0202                     u105_21:
  1279     0202  2A17               	goto	i1l1303
  1280     0203                     u105_20:
  1281     0203                     i1l1299:
  1282     0203  1FF3               	btfss	___xxtofl@val+3,7
  1283     0204  2A06               	goto	u106_21
  1284     0205  2A07               	goto	u106_20
  1285     0206                     u106_21:
  1286     0206  2A17               	goto	i1l1303
  1287     0207                     u106_20:
  1288     0207                     i1l1301:
  1289     0207  0970               	comf	___xxtofl@val,w
  1290     0208  00FA               	movwf	___xxtofl@arg
  1291     0209  0971               	comf	___xxtofl@val+1,w
  1292     020A  00FB               	movwf	___xxtofl@arg+1
  1293     020B  0972               	comf	___xxtofl@val+2,w
  1294     020C  00FC               	movwf	___xxtofl@arg+2
  1295     020D  0973               	comf	___xxtofl@val+3,w
  1296     020E  00FD               	movwf	___xxtofl@arg+3
  1297     020F  0AFA               	incf	___xxtofl@arg,f
  1298     0210  1903               	skipnz
  1299     0211  0AFB               	incf	___xxtofl@arg+1,f
  1300     0212  1903               	skipnz
  1301     0213  0AFC               	incf	___xxtofl@arg+2,f
  1302     0214  1903               	skipnz
  1303     0215  0AFD               	incf	___xxtofl@arg+3,f
  1304     0216  2A1F               	goto	i1l666
  1305     0217                     i1l1303:
  1306     0217  0873               	movf	___xxtofl@val+3,w
  1307     0218  00FD               	movwf	___xxtofl@arg+3
  1308     0219  0872               	movf	___xxtofl@val+2,w
  1309     021A  00FC               	movwf	___xxtofl@arg+2
  1310     021B  0871               	movf	___xxtofl@val+1,w
  1311     021C  00FB               	movwf	___xxtofl@arg+1
  1312     021D  0870               	movf	___xxtofl@val,w
  1313     021E  00FA               	movwf	___xxtofl@arg
  1314     021F                     i1l666:
  1315     021F  0873               	movf	___xxtofl@val+3,w
  1316     0220  0472               	iorwf	___xxtofl@val+2,w
  1317     0221  0471               	iorwf	___xxtofl@val+1,w
  1318     0222  0470               	iorwf	___xxtofl@val,w
  1319     0223  1D03               	skipz
  1320     0224  2A26               	goto	u107_21
  1321     0225  2A27               	goto	u107_20
  1322     0226                     u107_21:
  1323     0226  2A30               	goto	i1l1309
  1324     0227                     u107_20:
  1325     0227                     i1l1305:
  1326     0227  3000               	movlw	0
  1327     0228  00F3               	movwf	?___xxtofl+3
  1328     0229  3000               	movlw	0
  1329     022A  00F2               	movwf	?___xxtofl+2
  1330     022B  3000               	movlw	0
  1331     022C  00F1               	movwf	?___xxtofl+1
  1332     022D  3000               	movlw	0
  1333     022E  00F0               	movwf	?___xxtofl
  1334     022F  2AB4               	goto	i1l668
  1335     0230                     i1l1309:
  1336     0230  3096               	movlw	150
  1337     0231  00F9               	movwf	___xxtofl@exp
  1338     0232  2A40               	goto	i1l1313
  1339     0233                     i1l1311:
  1340     0233  3001               	movlw	1
  1341     0234  00F4               	movwf	??___xxtofl
  1342     0235  0874               	movf	??___xxtofl,w
  1343     0236  07F9               	addwf	___xxtofl@exp,f
  1344     0237  3001               	movlw	1
  1345     0238                     u108_25:
  1346     0238  1003               	clrc
  1347     0239  0CFD               	rrf	___xxtofl@arg+3,f
  1348     023A  0CFC               	rrf	___xxtofl@arg+2,f
  1349     023B  0CFB               	rrf	___xxtofl@arg+1,f
  1350     023C  0CFA               	rrf	___xxtofl@arg,f
  1351     023D  3EFF               	addlw	-1
  1352     023E  1D03               	skipz
  1353     023F  2A38               	goto	u108_25
  1354     0240                     i1l1313:
  1355     0240  30FE               	movlw	254
  1356     0241  057D               	andwf	___xxtofl@arg+3,w
  1357     0242  1D03               	btfss	3,2
  1358     0243  2A45               	goto	u109_21
  1359     0244  2A46               	goto	u109_20
  1360     0245                     u109_21:
  1361     0245  2A33               	goto	i1l1311
  1362     0246                     u109_20:
  1363     0246  2A62               	goto	i1l672
  1364     0247                     i1l1315:
  1365     0247  3001               	movlw	1
  1366     0248  00F4               	movwf	??___xxtofl
  1367     0249  0874               	movf	??___xxtofl,w
  1368     024A  07F9               	addwf	___xxtofl@exp,f
  1369     024B                     i1l1317:
  1370     024B  3001               	movlw	1
  1371     024C  07FA               	addwf	___xxtofl@arg,f
  1372     024D  3000               	movlw	0
  1373     024E  1803               	skipnc
  1374     024F  3001               	movlw	1
  1375     0250  07FB               	addwf	___xxtofl@arg+1,f
  1376     0251  3000               	movlw	0
  1377     0252  1803               	skipnc
  1378     0253  3001               	movlw	1
  1379     0254  07FC               	addwf	___xxtofl@arg+2,f
  1380     0255  3000               	movlw	0
  1381     0256  1803               	skipnc
  1382     0257  3001               	movlw	1
  1383     0258  07FD               	addwf	___xxtofl@arg+3,f
  1384     0259                     i1l1319:
  1385     0259  3001               	movlw	1
  1386     025A                     u110_25:
  1387     025A  1003               	clrc
  1388     025B  0CFD               	rrf	___xxtofl@arg+3,f
  1389     025C  0CFC               	rrf	___xxtofl@arg+2,f
  1390     025D  0CFB               	rrf	___xxtofl@arg+1,f
  1391     025E  0CFA               	rrf	___xxtofl@arg,f
  1392     025F  3EFF               	addlw	-1
  1393     0260  1D03               	skipz
  1394     0261  2A5A               	goto	u110_25
  1395     0262                     i1l672:
  1396     0262  30FF               	movlw	255
  1397     0263  057D               	andwf	___xxtofl@arg+3,w
  1398     0264  1D03               	btfss	3,2
  1399     0265  2A67               	goto	u111_21
  1400     0266  2A68               	goto	u111_20
  1401     0267                     u111_21:
  1402     0267  2A47               	goto	i1l1315
  1403     0268                     u111_20:
  1404     0268  2A74               	goto	i1l1323
  1405     0269                     i1l1321:
  1406     0269  3001               	movlw	1
  1407     026A  02F9               	subwf	___xxtofl@exp,f
  1408     026B  3001               	movlw	1
  1409     026C  00F4               	movwf	??___xxtofl
  1410     026D                     u112_25:
  1411     026D  1003               	clrc
  1412     026E  0DFA               	rlf	___xxtofl@arg,f
  1413     026F  0DFB               	rlf	___xxtofl@arg+1,f
  1414     0270  0DFC               	rlf	___xxtofl@arg+2,f
  1415     0271  0DFD               	rlf	___xxtofl@arg+3,f
  1416     0272  0BF4               	decfsz	??___xxtofl,f
  1417     0273  2A6D               	goto	u112_25
  1418     0274                     i1l1323:
  1419     0274  1BFC               	btfsc	___xxtofl@arg+2,7
  1420     0275  2A77               	goto	u113_21
  1421     0276  2A78               	goto	u113_20
  1422     0277                     u113_21:
  1423     0277  2A7E               	goto	i1l679
  1424     0278                     u113_20:
  1425     0278                     i1l1325:
  1426     0278  3002               	movlw	2
  1427     0279  0279               	subwf	___xxtofl@exp,w
  1428     027A  1803               	skipnc
  1429     027B  2A7D               	goto	u114_21
  1430     027C  2A7E               	goto	u114_20
  1431     027D                     u114_21:
  1432     027D  2A69               	goto	i1l1321
  1433     027E                     u114_20:
  1434     027E                     i1l679:
  1435     027E  1879               	btfsc	___xxtofl@exp,0
  1436     027F  2A81               	goto	u115_21
  1437     0280  2A82               	goto	u115_20
  1438     0281                     u115_21:
  1439     0281  2A8A               	goto	i1l680
  1440     0282                     u115_20:
  1441     0282                     i1l1327:
  1442     0282  30FF               	movlw	255
  1443     0283  05FA               	andwf	___xxtofl@arg,f
  1444     0284  30FF               	movlw	255
  1445     0285  05FB               	andwf	___xxtofl@arg+1,f
  1446     0286  307F               	movlw	127
  1447     0287  05FC               	andwf	___xxtofl@arg+2,f
  1448     0288  30FF               	movlw	255
  1449     0289  05FD               	andwf	___xxtofl@arg+3,f
  1450     028A                     i1l680:
  1451     028A  1003               	clrc
  1452     028B  0CF9               	rrf	___xxtofl@exp,f
  1453     028C                     i1l1329:
  1454     028C  0879               	movf	___xxtofl@exp,w
  1455     028D  00F4               	movwf	??___xxtofl
  1456     028E  01F5               	clrf	??___xxtofl+1
  1457     028F  01F6               	clrf	??___xxtofl+2
  1458     0290  01F7               	clrf	??___xxtofl+3
  1459     0291  3018               	movlw	24
  1460     0292                     u116_25:
  1461     0292  1003               	clrc
  1462     0293  0DF4               	rlf	??___xxtofl,f
  1463     0294  0DF5               	rlf	??___xxtofl+1,f
  1464     0295  0DF6               	rlf	??___xxtofl+2,f
  1465     0296  0DF7               	rlf	??___xxtofl+3,f
  1466     0297                     u116_20:
  1467     0297  3EFF               	addlw	-1
  1468     0298  1D03               	skipz
  1469     0299  2A92               	goto	u116_25
  1470     029A  0874               	movf	??___xxtofl,w
  1471     029B  04FA               	iorwf	___xxtofl@arg,f
  1472     029C  0875               	movf	??___xxtofl+1,w
  1473     029D  04FB               	iorwf	___xxtofl@arg+1,f
  1474     029E  0876               	movf	??___xxtofl+2,w
  1475     029F  04FC               	iorwf	___xxtofl@arg+2,f
  1476     02A0  0877               	movf	??___xxtofl+3,w
  1477     02A1  04FD               	iorwf	___xxtofl@arg+3,f
  1478     02A2                     i1l1331:
  1479     02A2  0878               	movf	___xxtofl@sign,w
  1480     02A3  1903               	btfsc	3,2
  1481     02A4  2AA6               	goto	u117_21
  1482     02A5  2AA7               	goto	u117_20
  1483     02A6                     u117_21:
  1484     02A6  2AAC               	goto	i1l1337
  1485     02A7                     u117_20:
  1486     02A7                     i1l1333:
  1487     02A7  1FF3               	btfss	___xxtofl@val+3,7
  1488     02A8  2AAA               	goto	u118_21
  1489     02A9  2AAB               	goto	u118_20
  1490     02AA                     u118_21:
  1491     02AA  2AAC               	goto	i1l1337
  1492     02AB                     u118_20:
  1493     02AB                     i1l1335:
  1494     02AB  17FD               	bsf	___xxtofl@arg+3,7
  1495     02AC                     i1l1337:
  1496     02AC  087D               	movf	___xxtofl@arg+3,w
  1497     02AD  00F3               	movwf	?___xxtofl+3
  1498     02AE  087C               	movf	___xxtofl@arg+2,w
  1499     02AF  00F2               	movwf	?___xxtofl+2
  1500     02B0  087B               	movf	___xxtofl@arg+1,w
  1501     02B1  00F1               	movwf	?___xxtofl+1
  1502     02B2  087A               	movf	___xxtofl@arg,w
  1503     02B3  00F0               	movwf	?___xxtofl
  1504     02B4                     i1l668:
  1505     02B4  0008               	return
  1506     02B5                     __end_of___xxtofl:
  1507                           
  1508                           	psect	text6
  1509     02B5                     __ptext6:	
  1510 ;; *************** function ___flge *****************
  1511 ;; Defined at:
  1512 ;;		line 4 in file "C:\Program Files\Microchip\xc8\v2.40\pic\sources\c90\common\flge.c"
  1513 ;; Parameters:    Size  Location     Type
  1514 ;;  ff1             4    0[COMMON] unsigned char 
  1515 ;;  ff2             4    4[COMMON] unsigned char 
  1516 ;; Auto vars:     Size  Location     Type
  1517 ;;		None
  1518 ;; Return value:  Size  Location     Type
  1519 ;;		None               void
  1520 ;; Registers used:
  1521 ;;		wreg, status,2, status,0
  1522 ;; Tracked objects:
  1523 ;;		On entry : 0/0
  1524 ;;		On exit  : 0/0
  1525 ;;		Unchanged: 0/0
  1526 ;; Data sizes:     COMMON   BANK0   BANK1   BANK3   BANK2
  1527 ;;      Params:         8       0       0       0       0
  1528 ;;      Locals:         0       0       0       0       0
  1529 ;;      Temps:          4       0       0       0       0
  1530 ;;      Totals:        12       0       0       0       0
  1531 ;;Total ram usage:       12 bytes
  1532 ;; Hardware stack levels used: 1
  1533 ;; This function calls:
  1534 ;;		Nothing
  1535 ;; This function is called by:
  1536 ;;		_readUpdate
  1537 ;; This function uses a non-reentrant model
  1538 ;;
  1539                           
  1540     02B5                     ___flge:	
  1541                           ;psect for function ___flge
  1542                           
  1543     02B5                     i1l1135:	
  1544                           ;incstack = 0
  1545                           ; Regs used in ___flge: [wreg+status,2+status,0]
  1546                           
  1547     02B5  3000               	movlw	0
  1548     02B6  0570               	andwf	___flge@ff1,w
  1549     02B7  00F8               	movwf	??___flge
  1550     02B8  3000               	movlw	0
  1551     02B9  0571               	andwf	___flge@ff1+1,w
  1552     02BA  00F9               	movwf	??___flge+1
  1553     02BB  3080               	movlw	128
  1554     02BC  0572               	andwf	___flge@ff1+2,w
  1555     02BD  00FA               	movwf	??___flge+2
  1556     02BE  307F               	movlw	127
  1557     02BF  0573               	andwf	___flge@ff1+3,w
  1558     02C0  00FB               	movwf	??___flge+3
  1559     02C1  087B               	movf	??___flge+3,w
  1560     02C2  047A               	iorwf	??___flge+2,w
  1561     02C3  0479               	iorwf	??___flge+1,w
  1562     02C4  0478               	iorwf	??___flge,w
  1563     02C5  1D03               	skipz
  1564     02C6  2AC8               	goto	u68_21
  1565     02C7  2AC9               	goto	u68_20
  1566     02C8                     u68_21:
  1567     02C8  2AD1               	goto	i1l407
  1568     02C9                     u68_20:
  1569     02C9                     i1l1137:
  1570     02C9  3000               	movlw	0
  1571     02CA  00F3               	movwf	___flge@ff1+3
  1572     02CB  3000               	movlw	0
  1573     02CC  00F2               	movwf	___flge@ff1+2
  1574     02CD  3000               	movlw	0
  1575     02CE  00F1               	movwf	___flge@ff1+1
  1576     02CF  3000               	movlw	0
  1577     02D0  00F0               	movwf	___flge@ff1
  1578     02D1                     i1l407:
  1579     02D1  3000               	movlw	0
  1580     02D2  0574               	andwf	___flge@ff2,w
  1581     02D3  00F8               	movwf	??___flge
  1582     02D4  3000               	movlw	0
  1583     02D5  0575               	andwf	___flge@ff2+1,w
  1584     02D6  00F9               	movwf	??___flge+1
  1585     02D7  3080               	movlw	128
  1586     02D8  0576               	andwf	___flge@ff2+2,w
  1587     02D9  00FA               	movwf	??___flge+2
  1588     02DA  307F               	movlw	127
  1589     02DB  0577               	andwf	___flge@ff2+3,w
  1590     02DC  00FB               	movwf	??___flge+3
  1591     02DD  087B               	movf	??___flge+3,w
  1592     02DE  047A               	iorwf	??___flge+2,w
  1593     02DF  0479               	iorwf	??___flge+1,w
  1594     02E0  0478               	iorwf	??___flge,w
  1595     02E1  1D03               	skipz
  1596     02E2  2AE4               	goto	u69_21
  1597     02E3  2AE5               	goto	u69_20
  1598     02E4                     u69_21:
  1599     02E4  2AED               	goto	i1l1141
  1600     02E5                     u69_20:
  1601     02E5                     i1l1139:
  1602     02E5  3000               	movlw	0
  1603     02E6  00F7               	movwf	___flge@ff2+3
  1604     02E7  3000               	movlw	0
  1605     02E8  00F6               	movwf	___flge@ff2+2
  1606     02E9  3000               	movlw	0
  1607     02EA  00F5               	movwf	___flge@ff2+1
  1608     02EB  3000               	movlw	0
  1609     02EC  00F4               	movwf	___flge@ff2
  1610     02ED                     i1l1141:
  1611     02ED  1FF3               	btfss	___flge@ff1+3,7
  1612     02EE  2AF0               	goto	u70_21
  1613     02EF  2AF1               	goto	u70_20
  1614     02F0                     u70_21:
  1615     02F0  2B15               	goto	i1l1145
  1616     02F1                     u70_20:
  1617     02F1                     i1l1143:
  1618     02F1  3000               	movlw	0
  1619     02F2  00F8               	movwf	??___flge
  1620     02F3  3000               	movlw	0
  1621     02F4  00F9               	movwf	??___flge+1
  1622     02F5  3000               	movlw	0
  1623     02F6  00FA               	movwf	??___flge+2
  1624     02F7  3080               	movlw	128
  1625     02F8  00FB               	movwf	??___flge+3
  1626     02F9  0870               	movf	___flge@ff1,w
  1627     02FA  02F8               	subwf	??___flge,f
  1628     02FB  0871               	movf	___flge@ff1+1,w
  1629     02FC  1C03               	skipc
  1630     02FD  0F71               	incfsz	___flge@ff1+1,w
  1631     02FE  2B00               	goto	u71_21
  1632     02FF  2B01               	goto	u71_22
  1633     0300                     u71_21:
  1634     0300  02F9               	subwf	??___flge+1,f
  1635     0301                     u71_22:
  1636     0301  0872               	movf	___flge@ff1+2,w
  1637     0302  1C03               	skipc
  1638     0303  0F72               	incfsz	___flge@ff1+2,w
  1639     0304  2B06               	goto	u71_23
  1640     0305  2B07               	goto	u71_24
  1641     0306                     u71_23:
  1642     0306  02FA               	subwf	??___flge+2,f
  1643     0307                     u71_24:
  1644     0307  0873               	movf	___flge@ff1+3,w
  1645     0308  1C03               	skipc
  1646     0309  0F73               	incfsz	___flge@ff1+3,w
  1647     030A  2B0C               	goto	u71_25
  1648     030B  2B0D               	goto	u71_26
  1649     030C                     u71_25:
  1650     030C  02FB               	subwf	??___flge+3,f
  1651     030D                     u71_26:
  1652     030D  087B               	movf	??___flge+3,w
  1653     030E  00F3               	movwf	___flge@ff1+3
  1654     030F  087A               	movf	??___flge+2,w
  1655     0310  00F2               	movwf	___flge@ff1+2
  1656     0311  0879               	movf	??___flge+1,w
  1657     0312  00F1               	movwf	___flge@ff1+1
  1658     0313  0878               	movf	??___flge,w
  1659     0314  00F0               	movwf	___flge@ff1
  1660     0315                     i1l1145:
  1661     0315  1FF7               	btfss	___flge@ff2+3,7
  1662     0316  2B18               	goto	u72_21
  1663     0317  2B19               	goto	u72_20
  1664     0318                     u72_21:
  1665     0318  2B3D               	goto	i1l410
  1666     0319                     u72_20:
  1667     0319                     i1l1147:
  1668     0319  3000               	movlw	0
  1669     031A  00F8               	movwf	??___flge
  1670     031B  3000               	movlw	0
  1671     031C  00F9               	movwf	??___flge+1
  1672     031D  3000               	movlw	0
  1673     031E  00FA               	movwf	??___flge+2
  1674     031F  3080               	movlw	128
  1675     0320  00FB               	movwf	??___flge+3
  1676     0321  0874               	movf	___flge@ff2,w
  1677     0322  02F8               	subwf	??___flge,f
  1678     0323  0875               	movf	___flge@ff2+1,w
  1679     0324  1C03               	skipc
  1680     0325  0F75               	incfsz	___flge@ff2+1,w
  1681     0326  2B28               	goto	u73_21
  1682     0327  2B29               	goto	u73_22
  1683     0328                     u73_21:
  1684     0328  02F9               	subwf	??___flge+1,f
  1685     0329                     u73_22:
  1686     0329  0876               	movf	___flge@ff2+2,w
  1687     032A  1C03               	skipc
  1688     032B  0F76               	incfsz	___flge@ff2+2,w
  1689     032C  2B2E               	goto	u73_23
  1690     032D  2B2F               	goto	u73_24
  1691     032E                     u73_23:
  1692     032E  02FA               	subwf	??___flge+2,f
  1693     032F                     u73_24:
  1694     032F  0877               	movf	___flge@ff2+3,w
  1695     0330  1C03               	skipc
  1696     0331  0F77               	incfsz	___flge@ff2+3,w
  1697     0332  2B34               	goto	u73_25
  1698     0333  2B35               	goto	u73_26
  1699     0334                     u73_25:
  1700     0334  02FB               	subwf	??___flge+3,f
  1701     0335                     u73_26:
  1702     0335  087B               	movf	??___flge+3,w
  1703     0336  00F7               	movwf	___flge@ff2+3
  1704     0337  087A               	movf	??___flge+2,w
  1705     0338  00F6               	movwf	___flge@ff2+2
  1706     0339  0879               	movf	??___flge+1,w
  1707     033A  00F5               	movwf	___flge@ff2+1
  1708     033B  0878               	movf	??___flge,w
  1709     033C  00F4               	movwf	___flge@ff2
  1710     033D                     i1l410:
  1711     033D  3080               	movlw	128
  1712     033E  06F3               	xorwf	___flge@ff1+3,f
  1713     033F  3080               	movlw	128
  1714     0340  06F7               	xorwf	___flge@ff2+3,f
  1715     0341  0877               	movf	___flge@ff2+3,w
  1716     0342  0273               	subwf	___flge@ff1+3,w
  1717     0343  1D03               	skipz
  1718     0344  2B4F               	goto	u74_25
  1719     0345  0876               	movf	___flge@ff2+2,w
  1720     0346  0272               	subwf	___flge@ff1+2,w
  1721     0347  1D03               	skipz
  1722     0348  2B4F               	goto	u74_25
  1723     0349  0875               	movf	___flge@ff2+1,w
  1724     034A  0271               	subwf	___flge@ff1+1,w
  1725     034B  1D03               	skipz
  1726     034C  2B4F               	goto	u74_25
  1727     034D  0874               	movf	___flge@ff2,w
  1728     034E  0270               	subwf	___flge@ff1,w
  1729     034F                     u74_25:
  1730     034F  1803               	skipnc
  1731     0350  2B52               	goto	u74_21
  1732     0351  2B53               	goto	u74_20
  1733     0352                     u74_21:
  1734     0352  2B55               	goto	i1l1151
  1735     0353                     u74_20:
  1736     0353                     i1l1149:
  1737     0353  1003               	clrc
  1738     0354  2B56               	goto	i1l411
  1739     0355                     i1l1151:
  1740     0355  1403               	setc
  1741     0356                     i1l411:
  1742     0356  0008               	return
  1743     0357                     __end_of___flge:
  1744                           
  1745                           	psect	text7
  1746     0024                     __ptext7:	
  1747 ;; *************** function ___fldiv *****************
  1748 ;; Defined at:
  1749 ;;		line 8 in file "C:\Program Files\Microchip\xc8\v2.40\pic\sources\c90\common\sprcdiv.c"
  1750 ;; Parameters:    Size  Location     Type
  1751 ;;  a               4    0[COMMON] unsigned char 
  1752 ;;  b               4    4[COMMON] unsigned char 
  1753 ;; Auto vars:     Size  Location     Type
  1754 ;;  grs             4    7[BANK0 ] unsigned long 
  1755 ;;  rem             4    0[BANK0 ] unsigned long 
  1756 ;;  new_exp         2    5[BANK0 ] int 
  1757 ;;  aexp            1   12[BANK0 ] unsigned char 
  1758 ;;  bexp            1   11[BANK0 ] unsigned char 
  1759 ;;  sign            1    4[BANK0 ] unsigned char 
  1760 ;; Return value:  Size  Location     Type
  1761 ;;                  4    0[COMMON] unsigned char 
  1762 ;; Registers used:
  1763 ;;		wreg, status,2, status,0, btemp+1
  1764 ;; Tracked objects:
  1765 ;;		On entry : 0/0
  1766 ;;		On exit  : 0/0
  1767 ;;		Unchanged: 0/0
  1768 ;; Data sizes:     COMMON   BANK0   BANK1   BANK3   BANK2
  1769 ;;      Params:         8       0       0       0       0
  1770 ;;      Locals:         0      13       0       0       0
  1771 ;;      Temps:          5       0       0       0       0
  1772 ;;      Totals:        13      13       0       0       0
  1773 ;;Total ram usage:       26 bytes
  1774 ;; Hardware stack levels used: 1
  1775 ;; This function calls:
  1776 ;;		Nothing
  1777 ;; This function is called by:
  1778 ;;		_readUpdate
  1779 ;; This function uses a non-reentrant model
  1780 ;;
  1781                           
  1782     0024                     ___fldiv:	
  1783                           ;psect for function ___fldiv
  1784                           
  1785     0024                     i1l1155:	
  1786                           ;incstack = 0
  1787                           ; Regs used in ___fldiv: [wreg+status,2+status,0+btemp+1]
  1788                           
  1789     0024  0877               	movf	___fldiv@b+3,w
  1790     0025  3980               	andlw	128
  1791     0026  1283               	bcf	3,5	;RP0=0, select bank0
  1792     0027  1303               	bcf	3,6	;RP1=0, select bank0
  1793     0028  00A4               	movwf	___fldiv@sign
  1794     0029                     i1l1157:
  1795     0029  0877               	movf	___fldiv@b+3,w
  1796     002A  00F8               	movwf	??___fldiv
  1797     002B  0778               	addwf	??___fldiv,w
  1798     002C  00AB               	movwf	___fldiv@bexp
  1799     002D                     i1l1159:
  1800     002D  1FF6               	btfss	___fldiv@b+2,7
  1801     002E  2830               	goto	u75_21
  1802     002F  2831               	goto	u75_20
  1803     0030                     u75_21:
  1804     0030  2832               	goto	i1l1163
  1805     0031                     u75_20:
  1806     0031                     i1l1161:
  1807     0031  142B               	bsf	___fldiv@bexp,0
  1808     0032                     i1l1163:
  1809     0032  082B               	movf	___fldiv@bexp,w
  1810     0033  1903               	btfsc	3,2
  1811     0034  2836               	goto	u76_21
  1812     0035  2837               	goto	u76_20
  1813     0036                     u76_21:
  1814     0036  2847               	goto	i1l1173
  1815     0037                     u76_20:
  1816     0037                     i1l1165:
  1817     0037  0A2B               	incf	___fldiv@bexp,w
  1818     0038  1D03               	btfss	3,2
  1819     0039  283B               	goto	u77_21
  1820     003A  283C               	goto	u77_20
  1821     003B                     u77_21:
  1822     003B  2844               	goto	i1l1169
  1823     003C                     u77_20:
  1824     003C                     i1l1167:
  1825     003C  3000               	movlw	0
  1826     003D  00F7               	movwf	___fldiv@b+3
  1827     003E  3000               	movlw	0
  1828     003F  00F6               	movwf	___fldiv@b+2
  1829     0040  3000               	movlw	0
  1830     0041  00F5               	movwf	___fldiv@b+1
  1831     0042  3000               	movlw	0
  1832     0043  00F4               	movwf	___fldiv@b
  1833     0044                     i1l1169:
  1834     0044  17F6               	bsf	___fldiv@b+2,7
  1835     0045                     i1l1171:
  1836     0045  01F7               	clrf	___fldiv@b+3
  1837     0046  284F               	goto	i1l1175
  1838     0047                     i1l1173:
  1839     0047  3000               	movlw	0
  1840     0048  00F7               	movwf	___fldiv@b+3
  1841     0049  3000               	movlw	0
  1842     004A  00F6               	movwf	___fldiv@b+2
  1843     004B  3000               	movlw	0
  1844     004C  00F5               	movwf	___fldiv@b+1
  1845     004D  3000               	movlw	0
  1846     004E  00F4               	movwf	___fldiv@b
  1847     004F                     i1l1175:
  1848     004F  0873               	movf	___fldiv@a+3,w
  1849     0050  3980               	andlw	128
  1850     0051  00F8               	movwf	??___fldiv
  1851     0052  0878               	movf	??___fldiv,w
  1852     0053  06A4               	xorwf	___fldiv@sign,f
  1853     0054                     i1l1177:
  1854     0054  0873               	movf	___fldiv@a+3,w
  1855     0055  00F8               	movwf	??___fldiv
  1856     0056  0778               	addwf	??___fldiv,w
  1857     0057  00AC               	movwf	___fldiv@aexp
  1858     0058                     i1l1179:
  1859     0058  1FF2               	btfss	___fldiv@a+2,7
  1860     0059  285B               	goto	u78_21
  1861     005A  285C               	goto	u78_20
  1862     005B                     u78_21:
  1863     005B  285D               	goto	i1l1183
  1864     005C                     u78_20:
  1865     005C                     i1l1181:
  1866     005C  142C               	bsf	___fldiv@aexp,0
  1867     005D                     i1l1183:
  1868     005D  082C               	movf	___fldiv@aexp,w
  1869     005E  1903               	btfsc	3,2
  1870     005F  2861               	goto	u79_21
  1871     0060  2862               	goto	u79_20
  1872     0061                     u79_21:
  1873     0061  2872               	goto	i1l1193
  1874     0062                     u79_20:
  1875     0062                     i1l1185:
  1876     0062  0A2C               	incf	___fldiv@aexp,w
  1877     0063  1D03               	btfss	3,2
  1878     0064  2866               	goto	u80_21
  1879     0065  2867               	goto	u80_20
  1880     0066                     u80_21:
  1881     0066  286F               	goto	i1l1189
  1882     0067                     u80_20:
  1883     0067                     i1l1187:
  1884     0067  3000               	movlw	0
  1885     0068  00F3               	movwf	___fldiv@a+3
  1886     0069  3000               	movlw	0
  1887     006A  00F2               	movwf	___fldiv@a+2
  1888     006B  3000               	movlw	0
  1889     006C  00F1               	movwf	___fldiv@a+1
  1890     006D  3000               	movlw	0
  1891     006E  00F0               	movwf	___fldiv@a
  1892     006F                     i1l1189:
  1893     006F  17F2               	bsf	___fldiv@a+2,7
  1894     0070                     i1l1191:
  1895     0070  01F3               	clrf	___fldiv@a+3
  1896     0071  287A               	goto	i1l582
  1897     0072                     i1l1193:
  1898     0072  3000               	movlw	0
  1899     0073  00F3               	movwf	___fldiv@a+3
  1900     0074  3000               	movlw	0
  1901     0075  00F2               	movwf	___fldiv@a+2
  1902     0076  3000               	movlw	0
  1903     0077  00F1               	movwf	___fldiv@a+1
  1904     0078  3000               	movlw	0
  1905     0079  00F0               	movwf	___fldiv@a
  1906     007A                     i1l582:
  1907     007A  0873               	movf	___fldiv@a+3,w
  1908     007B  0472               	iorwf	___fldiv@a+2,w
  1909     007C  0471               	iorwf	___fldiv@a+1,w
  1910     007D  0470               	iorwf	___fldiv@a,w
  1911     007E  1D03               	skipz
  1912     007F  2881               	goto	u81_21
  1913     0080  2882               	goto	u81_20
  1914     0081                     u81_21:
  1915     0081  289B               	goto	i1l1203
  1916     0082                     u81_20:
  1917     0082                     i1l1195:
  1918     0082  3000               	movlw	0
  1919     0083  00F7               	movwf	___fldiv@b+3
  1920     0084  3000               	movlw	0
  1921     0085  00F6               	movwf	___fldiv@b+2
  1922     0086  3000               	movlw	0
  1923     0087  00F5               	movwf	___fldiv@b+1
  1924     0088  3000               	movlw	0
  1925     0089  00F4               	movwf	___fldiv@b
  1926     008A  3080               	movlw	128
  1927     008B  04F6               	iorwf	___fldiv@b+2,f
  1928     008C  307F               	movlw	127
  1929     008D  04F7               	iorwf	___fldiv@b+3,f
  1930     008E                     i1l1197:
  1931     008E  0824               	movf	___fldiv@sign,w
  1932     008F  00F8               	movwf	??___fldiv
  1933     0090  0878               	movf	??___fldiv,w
  1934     0091  04F7               	iorwf	___fldiv@b+3,f
  1935     0092                     i1l1199:
  1936     0092  0877               	movf	___fldiv@b+3,w
  1937     0093  00F3               	movwf	?___fldiv+3
  1938     0094  0876               	movf	___fldiv@b+2,w
  1939     0095  00F2               	movwf	?___fldiv+2
  1940     0096  0875               	movf	___fldiv@b+1,w
  1941     0097  00F1               	movwf	?___fldiv+1
  1942     0098  0874               	movf	___fldiv@b,w
  1943     0099  00F0               	movwf	?___fldiv
  1944     009A  29FC               	goto	i1l584
  1945     009B                     i1l1203:
  1946     009B  082B               	movf	___fldiv@bexp,w
  1947     009C  1D03               	btfss	3,2
  1948     009D  289F               	goto	u82_21
  1949     009E  28A0               	goto	u82_20
  1950     009F                     u82_21:
  1951     009F  28A9               	goto	i1l1209
  1952     00A0                     u82_20:
  1953     00A0                     i1l1205:
  1954     00A0  3000               	movlw	0
  1955     00A1  00F3               	movwf	?___fldiv+3
  1956     00A2  3000               	movlw	0
  1957     00A3  00F2               	movwf	?___fldiv+2
  1958     00A4  3000               	movlw	0
  1959     00A5  00F1               	movwf	?___fldiv+1
  1960     00A6  3000               	movlw	0
  1961     00A7  00F0               	movwf	?___fldiv
  1962     00A8  29FC               	goto	i1l584
  1963     00A9                     i1l1209:
  1964     00A9  082B               	movf	___fldiv@bexp,w
  1965     00AA  00F8               	movwf	??___fldiv
  1966     00AB  01F9               	clrf	??___fldiv+1
  1967     00AC  0879               	movf	??___fldiv+1,w
  1968     00AD  00FB               	movwf	??___fldiv+3
  1969     00AE  082C               	movf	___fldiv@aexp,w
  1970     00AF  0278               	subwf	??___fldiv,w
  1971     00B0  00FA               	movwf	??___fldiv+2
  1972     00B1  1C03               	skipc
  1973     00B2  03FB               	decf	??___fldiv+3,f
  1974     00B3  087A               	movf	??___fldiv+2,w
  1975     00B4  3E7F               	addlw	127
  1976     00B5  00A5               	movwf	___fldiv@new_exp
  1977     00B6  087B               	movf	??___fldiv+3,w
  1978     00B7  1803               	skipnc
  1979     00B8  3E01               	addlw	1
  1980     00B9  3E00               	addlw	0
  1981     00BA  00A6               	movwf	___fldiv@new_exp+1
  1982     00BB                     i1l1211:
  1983     00BB  0877               	movf	___fldiv@b+3,w
  1984     00BC  00A3               	movwf	___fldiv@rem+3
  1985     00BD  0876               	movf	___fldiv@b+2,w
  1986     00BE  00A2               	movwf	___fldiv@rem+2
  1987     00BF  0875               	movf	___fldiv@b+1,w
  1988     00C0  00A1               	movwf	___fldiv@rem+1
  1989     00C1  0874               	movf	___fldiv@b,w
  1990     00C2  00A0               	movwf	___fldiv@rem
  1991     00C3                     i1l1213:
  1992     00C3  3000               	movlw	0
  1993     00C4  00F7               	movwf	___fldiv@b+3
  1994     00C5  3000               	movlw	0
  1995     00C6  00F6               	movwf	___fldiv@b+2
  1996     00C7  3000               	movlw	0
  1997     00C8  00F5               	movwf	___fldiv@b+1
  1998     00C9  3000               	movlw	0
  1999     00CA  00F4               	movwf	___fldiv@b
  2000     00CB                     i1l1215:
  2001     00CB  3000               	movlw	0
  2002     00CC  00AA               	movwf	___fldiv@grs+3
  2003     00CD  3000               	movlw	0
  2004     00CE  00A9               	movwf	___fldiv@grs+2
  2005     00CF  3000               	movlw	0
  2006     00D0  00A8               	movwf	___fldiv@grs+1
  2007     00D1  3000               	movlw	0
  2008     00D2  00A7               	movwf	___fldiv@grs
  2009     00D3                     i1l1217:
  2010     00D3  01AC               	clrf	___fldiv@aexp
  2011     00D4  2925               	goto	i1l1237
  2012     00D5                     i1l1219:
  2013     00D5  082C               	movf	___fldiv@aexp,w
  2014     00D6  1903               	btfsc	3,2
  2015     00D7  28D9               	goto	u83_21
  2016     00D8  28DA               	goto	u83_20
  2017     00D9                     u83_21:
  2018     00D9  28FA               	goto	i1l1229
  2019     00DA                     u83_20:
  2020     00DA                     i1l1221:
  2021     00DA  3001               	movlw	1
  2022     00DB  00F8               	movwf	??___fldiv
  2023     00DC                     u84_25:
  2024     00DC  1003               	clrc
  2025     00DD  0DA0               	rlf	___fldiv@rem,f
  2026     00DE  0DA1               	rlf	___fldiv@rem+1,f
  2027     00DF  0DA2               	rlf	___fldiv@rem+2,f
  2028     00E0  0DA3               	rlf	___fldiv@rem+3,f
  2029     00E1  0BF8               	decfsz	??___fldiv,f
  2030     00E2  28DC               	goto	u84_25
  2031     00E3  3001               	movlw	1
  2032     00E4  00F8               	movwf	??___fldiv
  2033     00E5                     u85_25:
  2034     00E5  1003               	clrc
  2035     00E6  0DF4               	rlf	___fldiv@b,f
  2036     00E7  0DF5               	rlf	___fldiv@b+1,f
  2037     00E8  0DF6               	rlf	___fldiv@b+2,f
  2038     00E9  0DF7               	rlf	___fldiv@b+3,f
  2039     00EA  0BF8               	decfsz	??___fldiv,f
  2040     00EB  28E5               	goto	u85_25
  2041     00EC                     i1l1223:
  2042     00EC  1FAA               	btfss	___fldiv@grs+3,7
  2043     00ED  28EF               	goto	u86_21
  2044     00EE  28F0               	goto	u86_20
  2045     00EF                     u86_21:
  2046     00EF  28F1               	goto	i1l1227
  2047     00F0                     u86_20:
  2048     00F0                     i1l1225:
  2049     00F0  1474               	bsf	___fldiv@b,0
  2050     00F1                     i1l1227:
  2051     00F1  3001               	movlw	1
  2052     00F2  00F8               	movwf	??___fldiv
  2053     00F3                     u87_25:
  2054     00F3  1003               	clrc
  2055     00F4  0DA7               	rlf	___fldiv@grs,f
  2056     00F5  0DA8               	rlf	___fldiv@grs+1,f
  2057     00F6  0DA9               	rlf	___fldiv@grs+2,f
  2058     00F7  0DAA               	rlf	___fldiv@grs+3,f
  2059     00F8  0BF8               	decfsz	??___fldiv,f
  2060     00F9  28F3               	goto	u87_25
  2061     00FA                     i1l1229:
  2062     00FA  0873               	movf	___fldiv@a+3,w
  2063     00FB  0223               	subwf	___fldiv@rem+3,w
  2064     00FC  1D03               	skipz
  2065     00FD  2908               	goto	u88_25
  2066     00FE  0872               	movf	___fldiv@a+2,w
  2067     00FF  0222               	subwf	___fldiv@rem+2,w
  2068     0100  1D03               	skipz
  2069     0101  2908               	goto	u88_25
  2070     0102  0871               	movf	___fldiv@a+1,w
  2071     0103  0221               	subwf	___fldiv@rem+1,w
  2072     0104  1D03               	skipz
  2073     0105  2908               	goto	u88_25
  2074     0106  0870               	movf	___fldiv@a,w
  2075     0107  0220               	subwf	___fldiv@rem,w
  2076     0108                     u88_25:
  2077     0108  1C03               	skipc
  2078     0109  290B               	goto	u88_21
  2079     010A  290C               	goto	u88_20
  2080     010B                     u88_21:
  2081     010B  2921               	goto	i1l1235
  2082     010C                     u88_20:
  2083     010C                     i1l1231:
  2084     010C  172A               	bsf	___fldiv@grs+3,6
  2085     010D                     i1l1233:
  2086     010D  0870               	movf	___fldiv@a,w
  2087     010E  02A0               	subwf	___fldiv@rem,f
  2088     010F  0871               	movf	___fldiv@a+1,w
  2089     0110  1C03               	skipc
  2090     0111  0F71               	incfsz	___fldiv@a+1,w
  2091     0112  2914               	goto	u89_25
  2092     0113  2915               	goto	u89_26
  2093     0114                     u89_25:
  2094     0114  02A1               	subwf	___fldiv@rem+1,f
  2095     0115                     u89_26:
  2096     0115  0872               	movf	___fldiv@a+2,w
  2097     0116  1C03               	skipc
  2098     0117  0F72               	incfsz	___fldiv@a+2,w
  2099     0118  291A               	goto	u89_27
  2100     0119  291B               	goto	u89_28
  2101     011A                     u89_27:
  2102     011A  02A2               	subwf	___fldiv@rem+2,f
  2103     011B                     u89_28:
  2104     011B  0873               	movf	___fldiv@a+3,w
  2105     011C  1C03               	skipc
  2106     011D  0F73               	incfsz	___fldiv@a+3,w
  2107     011E  2920               	goto	u89_29
  2108     011F  2921               	goto	u89_20
  2109     0120                     u89_29:
  2110     0120  02A3               	subwf	___fldiv@rem+3,f
  2111     0121                     u89_20:
  2112     0121                     i1l1235:
  2113     0121  3001               	movlw	1
  2114     0122  00F8               	movwf	??___fldiv
  2115     0123  0878               	movf	??___fldiv,w
  2116     0124  07AC               	addwf	___fldiv@aexp,f
  2117     0125                     i1l1237:
  2118     0125  301A               	movlw	26
  2119     0126  022C               	subwf	___fldiv@aexp,w
  2120     0127  1C03               	skipc
  2121     0128  292A               	goto	u90_21
  2122     0129  292B               	goto	u90_20
  2123     012A                     u90_21:
  2124     012A  28D5               	goto	i1l1219
  2125     012B                     u90_20:
  2126     012B                     i1l1239:
  2127     012B  0823               	movf	___fldiv@rem+3,w
  2128     012C  0422               	iorwf	___fldiv@rem+2,w
  2129     012D  0421               	iorwf	___fldiv@rem+1,w
  2130     012E  0420               	iorwf	___fldiv@rem,w
  2131     012F  1903               	skipnz
  2132     0130  2932               	goto	u91_21
  2133     0131  2933               	goto	u91_20
  2134     0132                     u91_21:
  2135     0132  2952               	goto	i1l1253
  2136     0133                     u91_20:
  2137     0133                     i1l1241:
  2138     0133  1427               	bsf	___fldiv@grs,0
  2139     0134  2952               	goto	i1l1253
  2140     0135                     i1l1243:
  2141     0135  3001               	movlw	1
  2142     0136  00F8               	movwf	??___fldiv
  2143     0137                     u92_25:
  2144     0137  1003               	clrc
  2145     0138  0DF4               	rlf	___fldiv@b,f
  2146     0139  0DF5               	rlf	___fldiv@b+1,f
  2147     013A  0DF6               	rlf	___fldiv@b+2,f
  2148     013B  0DF7               	rlf	___fldiv@b+3,f
  2149     013C  0BF8               	decfsz	??___fldiv,f
  2150     013D  2937               	goto	u92_25
  2151     013E                     i1l1245:
  2152     013E  1FAA               	btfss	___fldiv@grs+3,7
  2153     013F  2941               	goto	u93_21
  2154     0140  2942               	goto	u93_20
  2155     0141                     u93_21:
  2156     0141  2943               	goto	i1l1249
  2157     0142                     u93_20:
  2158     0142                     i1l1247:
  2159     0142  1474               	bsf	___fldiv@b,0
  2160     0143                     i1l1249:
  2161     0143  3001               	movlw	1
  2162     0144  00F8               	movwf	??___fldiv
  2163     0145                     u94_25:
  2164     0145  1003               	clrc
  2165     0146  0DA7               	rlf	___fldiv@grs,f
  2166     0147  0DA8               	rlf	___fldiv@grs+1,f
  2167     0148  0DA9               	rlf	___fldiv@grs+2,f
  2168     0149  0DAA               	rlf	___fldiv@grs+3,f
  2169     014A  0BF8               	decfsz	??___fldiv,f
  2170     014B  2945               	goto	u94_25
  2171     014C                     i1l1251:
  2172     014C  30FF               	movlw	255
  2173     014D  07A5               	addwf	___fldiv@new_exp,f
  2174     014E  1803               	skipnc
  2175     014F  0AA6               	incf	___fldiv@new_exp+1,f
  2176     0150  30FF               	movlw	255
  2177     0151  07A6               	addwf	___fldiv@new_exp+1,f
  2178     0152                     i1l1253:
  2179     0152  1FF6               	btfss	___fldiv@b+2,7
  2180     0153  2955               	goto	u95_21
  2181     0154  2956               	goto	u95_20
  2182     0155                     u95_21:
  2183     0155  2935               	goto	i1l1243
  2184     0156                     u95_20:
  2185     0156                     i1l1255:
  2186     0156  01AC               	clrf	___fldiv@aexp
  2187     0157                     i1l1257:
  2188     0157  1FAA               	btfss	___fldiv@grs+3,7
  2189     0158  295A               	goto	u96_21
  2190     0159  295B               	goto	u96_20
  2191     015A                     u96_21:
  2192     015A  2977               	goto	i1l1265
  2193     015B                     u96_20:
  2194     015B                     i1l1259:
  2195     015B  30FF               	movlw	255
  2196     015C  0527               	andwf	___fldiv@grs,w
  2197     015D  00F8               	movwf	??___fldiv
  2198     015E  30FF               	movlw	255
  2199     015F  0528               	andwf	___fldiv@grs+1,w
  2200     0160  00F9               	movwf	??___fldiv+1
  2201     0161  30FF               	movlw	255
  2202     0162  0529               	andwf	___fldiv@grs+2,w
  2203     0163  00FA               	movwf	??___fldiv+2
  2204     0164  307F               	movlw	127
  2205     0165  052A               	andwf	___fldiv@grs+3,w
  2206     0166  00FB               	movwf	??___fldiv+3
  2207     0167  087B               	movf	??___fldiv+3,w
  2208     0168  047A               	iorwf	??___fldiv+2,w
  2209     0169  0479               	iorwf	??___fldiv+1,w
  2210     016A  0478               	iorwf	??___fldiv,w
  2211     016B  1903               	skipnz
  2212     016C  296E               	goto	u97_21
  2213     016D  296F               	goto	u97_20
  2214     016E                     u97_21:
  2215     016E  2972               	goto	i1l598
  2216     016F                     u97_20:
  2217     016F                     i1l1261:
  2218     016F  01AC               	clrf	___fldiv@aexp
  2219     0170  0AAC               	incf	___fldiv@aexp,f
  2220     0171  2977               	goto	i1l1265
  2221     0172                     i1l598:
  2222     0172  1C74               	btfss	___fldiv@b,0
  2223     0173  2975               	goto	u98_21
  2224     0174  2976               	goto	u98_20
  2225     0175                     u98_21:
  2226     0175  2977               	goto	i1l1265
  2227     0176                     u98_20:
  2228     0176  296F               	goto	i1l1261
  2229     0177                     i1l1265:
  2230     0177  082C               	movf	___fldiv@aexp,w
  2231     0178  1903               	btfsc	3,2
  2232     0179  297B               	goto	u99_21
  2233     017A  297C               	goto	u99_20
  2234     017B                     u99_21:
  2235     017B  29AD               	goto	i1l1275
  2236     017C                     u99_20:
  2237     017C                     i1l1267:
  2238     017C  3001               	movlw	1
  2239     017D  07F4               	addwf	___fldiv@b,f
  2240     017E  3000               	movlw	0
  2241     017F  1803               	skipnc
  2242     0180  3001               	movlw	1
  2243     0181  07F5               	addwf	___fldiv@b+1,f
  2244     0182  3000               	movlw	0
  2245     0183  1803               	skipnc
  2246     0184  3001               	movlw	1
  2247     0185  07F6               	addwf	___fldiv@b+2,f
  2248     0186  3000               	movlw	0
  2249     0187  1803               	skipnc
  2250     0188  3001               	movlw	1
  2251     0189  07F7               	addwf	___fldiv@b+3,f
  2252     018A                     i1l1269:
  2253     018A  1C77               	btfss	___fldiv@b+3,0
  2254     018B  298D               	goto	u100_21
  2255     018C  298E               	goto	u100_20
  2256     018D                     u100_21:
  2257     018D  29AD               	goto	i1l1275
  2258     018E                     u100_20:
  2259     018E                     i1l1271:
  2260     018E  0874               	movf	___fldiv@b,w
  2261     018F  00F8               	movwf	??___fldiv
  2262     0190  0875               	movf	___fldiv@b+1,w
  2263     0191  00F9               	movwf	??___fldiv+1
  2264     0192  0876               	movf	___fldiv@b+2,w
  2265     0193  00FA               	movwf	??___fldiv+2
  2266     0194  0877               	movf	___fldiv@b+3,w
  2267     0195  00FB               	movwf	??___fldiv+3
  2268     0196  3001               	movlw	1
  2269     0197  00FC               	movwf	??___fldiv+4
  2270     0198                     u101_25:
  2271     0198  0D7B               	rlf	??___fldiv+3,w
  2272     0199  0CFB               	rrf	??___fldiv+3,f
  2273     019A  0CFA               	rrf	??___fldiv+2,f
  2274     019B  0CF9               	rrf	??___fldiv+1,f
  2275     019C  0CF8               	rrf	??___fldiv,f
  2276     019D                     u101_20:
  2277     019D  0BFC               	decfsz	??___fldiv+4,f
  2278     019E  2998               	goto	u101_25
  2279     019F  087B               	movf	??___fldiv+3,w
  2280     01A0  00F7               	movwf	___fldiv@b+3
  2281     01A1  087A               	movf	??___fldiv+2,w
  2282     01A2  00F6               	movwf	___fldiv@b+2
  2283     01A3  0879               	movf	??___fldiv+1,w
  2284     01A4  00F5               	movwf	___fldiv@b+1
  2285     01A5  0878               	movf	??___fldiv,w
  2286     01A6  00F4               	movwf	___fldiv@b
  2287     01A7                     i1l1273:
  2288     01A7  3001               	movlw	1
  2289     01A8  07A5               	addwf	___fldiv@new_exp,f
  2290     01A9  1803               	skipnc
  2291     01AA  0AA6               	incf	___fldiv@new_exp+1,f
  2292     01AB  3000               	movlw	0
  2293     01AC  07A6               	addwf	___fldiv@new_exp+1,f
  2294     01AD                     i1l1275:
  2295     01AD  0826               	movf	___fldiv@new_exp+1,w
  2296     01AE  3A80               	xorlw	128
  2297     01AF  00FF               	movwf	btemp+1
  2298     01B0  3080               	movlw	128
  2299     01B1  027F               	subwf	btemp+1,w
  2300     01B2  1D03               	skipz
  2301     01B3  29B6               	goto	u102_25
  2302     01B4  30FF               	movlw	255
  2303     01B5  0225               	subwf	___fldiv@new_exp,w
  2304     01B6                     u102_25:
  2305     01B6  1C03               	skipc
  2306     01B7  29B9               	goto	u102_21
  2307     01B8  29BA               	goto	u102_20
  2308     01B9                     u102_21:
  2309     01B9  29C8               	goto	i1l1279
  2310     01BA                     u102_20:
  2311     01BA                     i1l1277:
  2312     01BA  30FF               	movlw	255
  2313     01BB  1283               	bcf	3,5	;RP0=0, select bank0
  2314     01BC  1303               	bcf	3,6	;RP1=0, select bank0
  2315     01BD  00A5               	movwf	___fldiv@new_exp
  2316     01BE  3000               	movlw	0
  2317     01BF  00A6               	movwf	___fldiv@new_exp+1
  2318     01C0  3000               	movlw	0
  2319     01C1  00F7               	movwf	___fldiv@b+3
  2320     01C2  3000               	movlw	0
  2321     01C3  00F6               	movwf	___fldiv@b+2
  2322     01C4  3000               	movlw	0
  2323     01C5  00F5               	movwf	___fldiv@b+1
  2324     01C6  3000               	movlw	0
  2325     01C7  00F4               	movwf	___fldiv@b
  2326     01C8                     i1l1279:
  2327     01C8  1283               	bcf	3,5	;RP0=0, select bank0
  2328     01C9  1303               	bcf	3,6	;RP1=0, select bank0
  2329     01CA  0826               	movf	___fldiv@new_exp+1,w
  2330     01CB  3A80               	xorlw	128
  2331     01CC  00FF               	movwf	btemp+1
  2332     01CD  3080               	movlw	128
  2333     01CE  027F               	subwf	btemp+1,w
  2334     01CF  1D03               	skipz
  2335     01D0  29D3               	goto	u103_25
  2336     01D1  3001               	movlw	1
  2337     01D2  0225               	subwf	___fldiv@new_exp,w
  2338     01D3                     u103_25:
  2339     01D3  1803               	skipnc
  2340     01D4  29D6               	goto	u103_21
  2341     01D5  29D7               	goto	u103_20
  2342     01D6                     u103_21:
  2343     01D6  29E4               	goto	i1l604
  2344     01D7                     u103_20:
  2345     01D7                     i1l1281:
  2346     01D7  1283               	bcf	3,5	;RP0=0, select bank0
  2347     01D8  1303               	bcf	3,6	;RP1=0, select bank0
  2348     01D9  01A5               	clrf	___fldiv@new_exp
  2349     01DA  01A6               	clrf	___fldiv@new_exp+1
  2350     01DB                     i1l1283:
  2351     01DB  3000               	movlw	0
  2352     01DC  00F7               	movwf	___fldiv@b+3
  2353     01DD  3000               	movlw	0
  2354     01DE  00F6               	movwf	___fldiv@b+2
  2355     01DF  3000               	movlw	0
  2356     01E0  00F5               	movwf	___fldiv@b+1
  2357     01E1  3000               	movlw	0
  2358     01E2  00F4               	movwf	___fldiv@b
  2359     01E3                     i1l1285:
  2360     01E3  01A4               	clrf	___fldiv@sign
  2361     01E4                     i1l604:
  2362     01E4  1283               	bcf	3,5	;RP0=0, select bank0
  2363     01E5  1303               	bcf	3,6	;RP1=0, select bank0
  2364     01E6  0825               	movf	___fldiv@new_exp,w
  2365     01E7  00AB               	movwf	___fldiv@bexp
  2366     01E8                     i1l1287:
  2367     01E8  1C2B               	btfss	___fldiv@bexp,0
  2368     01E9  29EB               	goto	u104_21
  2369     01EA  29EC               	goto	u104_20
  2370     01EB                     u104_21:
  2371     01EB  29EE               	goto	i1l1291
  2372     01EC                     u104_20:
  2373     01EC                     i1l1289:
  2374     01EC  17F6               	bsf	___fldiv@b+2,7
  2375     01ED  29F2               	goto	i1l606
  2376     01EE                     i1l1291:
  2377     01EE  307F               	movlw	127
  2378     01EF  00F8               	movwf	??___fldiv
  2379     01F0  0878               	movf	??___fldiv,w
  2380     01F1  05F6               	andwf	___fldiv@b+2,f
  2381     01F2                     i1l606:
  2382     01F2  082B               	movf	___fldiv@bexp,w
  2383     01F3  00F8               	movwf	??___fldiv
  2384     01F4  1003               	clrc
  2385     01F5  0C78               	rrf	??___fldiv,w
  2386     01F6  00F7               	movwf	___fldiv@b+3
  2387     01F7  0824               	movf	___fldiv@sign,w
  2388     01F8  00F8               	movwf	??___fldiv
  2389     01F9  0878               	movf	??___fldiv,w
  2390     01FA  04F7               	iorwf	___fldiv@b+3,f
  2391     01FB  2892               	goto	i1l1199
  2392     01FC                     i1l584:
  2393     01FC  0008               	return
  2394     01FD                     __end_of___fldiv:
  2395     007E                     btemp	set	126	;btemp
  2396     007E                     wtemp0	set	126
  2397                           
  2398                           	psect	idloc
  2399                           
  2400                           ;Config register IDLOC0 @ 0x2000
  2401                           ;	unspecified, using default values
  2402     2000                     	org	8192
  2403     2000  3FFF               	dw	16383
  2404                           
  2405                           ;Config register IDLOC1 @ 0x2001
  2406                           ;	unspecified, using default values
  2407     2001                     	org	8193
  2408     2001  3FFF               	dw	16383
  2409                           
  2410                           ;Config register IDLOC2 @ 0x2002
  2411                           ;	unspecified, using default values
  2412     2002                     	org	8194
  2413     2002  3FFF               	dw	16383
  2414                           
  2415                           ;Config register IDLOC3 @ 0x2003
  2416                           ;	unspecified, using default values
  2417     2003                     	org	8195
  2418     2003  3FFF               	dw	16383
  2419                           
  2420                           	psect	config
  2421                           
  2422                           ;Config register CONFIG1 @ 0x2007
  2423                           ;	Oscillator Selection bits
  2424                           ;	FOSC = INTRC_NOCLKOUT, INTOSCIO oscillator: I/O function on RA6/OSC2/CLKOUT pin, I/O f
      +                          unction on RA7/OSC1/CLKIN
  2425                           ;	Watchdog Timer Enable bit
  2426                           ;	WDTE = OFF, WDT disabled and can be enabled by SWDTEN bit of the WDTCON register
  2427                           ;	Power-up Timer Enable bit
  2428                           ;	PWRTE = OFF, PWRT disabled
  2429                           ;	RE3/MCLR pin function select bit
  2430                           ;	MCLRE = OFF, RE3/MCLR pin function is digital input, MCLR internally tied to VDD
  2431                           ;	Code Protection bit
  2432                           ;	CP = OFF, Program memory code protection is disabled
  2433                           ;	Data Code Protection bit
  2434                           ;	CPD = OFF, Data memory code protection is disabled
  2435                           ;	Brown Out Reset Selection bits
  2436                           ;	BOREN = OFF, BOR disabled
  2437                           ;	Internal External Switchover bit
  2438                           ;	IESO = OFF, Internal/External Switchover mode is disabled
  2439                           ;	Fail-Safe Clock Monitor Enabled bit
  2440                           ;	FCMEN = OFF, Fail-Safe Clock Monitor is disabled
  2441                           ;	Low Voltage Programming Enable bit
  2442                           ;	LVP = OFF, RB3 pin has digital I/O, HV on MCLR must be used for programming
  2443                           ;	In-Circuit Debugger Mode bit
  2444                           ;	DEBUG = 0x1, unprogramme  2445     2007                     	org	8199
  2446     2007  20D4               	dw	8404
  2447                           
  2448                           ;Config register CONFIG2 @ 0x2008
  2449                           ;	Brown-out Reset Selection bit
  2450                           ;	BOR4V = BOR40V, Brown-out Reset set to 4.0V
  2451                           ;	Flash Program Memory Self Write Enable bits
  2452                           ;	WRT = OFF, Write protection off
  2453     2008                     	org	8200
  2454     2008  3FFF               	dw	16383

Data Sizes:
    Strings     0
    Constant    0
    Data        0
    BSS         11
    Persistent  0
    Stack       0

Auto Spaces:
    Space          Size  Autos    Used
    COMMON           14     14      14
    BANK0            80     20      31
    BANK1            80      0       0
    BANK3            96      0       0
    BANK2            96      0       0

Pointer List with Targets:

    None.

Critical Paths under _main in COMMON

    None.

Critical Paths under _isr in COMMON

    _readUpdate->___xxtofl

Critical Paths under _main in BANK0

    _setup->_I2C_Slave_Init

Critical Paths under _isr in BANK0

    _isr->_readUpdate
    _readUpdate->___fldiv

Critical Paths under _main in BANK1

    None.

Critical Paths under _isr in BANK1

    None.

Critical Paths under _main in BANK3

    None.

Critical Paths under _isr in BANK3

    None.

Critical Paths under _main in BANK2

    None.

Critical Paths under _isr in BANK2

    None.

Call Graph Tables:

 ---------------------------------------------------------------------------------
 (Depth) Function   	        Calls       Base Space   Used Autos Params    Refs
 ---------------------------------------------------------------------------------
 (0) _main                                                 0     0      0      22
                              _setup
 ---------------------------------------------------------------------------------
 (1) _setup                                                0     0      0      22
                     _I2C_Slave_Init
 ---------------------------------------------------------------------------------
 (2) _I2C_Slave_Init                                       1     1      0      22
                                             19 BANK0      1     1      0
 ---------------------------------------------------------------------------------
 Estimated maximum stack depth 2
 ---------------------------------------------------------------------------------
 (Depth) Function   	        Calls       Base Space   Used Autos Params    Refs
 ---------------------------------------------------------------------------------
 (3) _isr                                                  4     4      0    2005
                                             15 BANK0      4     4      0
                         _readUpdate
 ---------------------------------------------------------------------------------
 (4) _readUpdate                                           2     2      0    2005
                                             13 BANK0      2     2      0
                            ___fldiv
                             ___flge
                           ___xxtofl
 ---------------------------------------------------------------------------------
 (5) ___xxtofl                                            14    10      4     398
                                              0 COMMON    14    10      4
 ---------------------------------------------------------------------------------
 (5) ___flge                                              12     4      8     334
                                              0 COMMON    12     4      8
 ---------------------------------------------------------------------------------
 (5) ___fldiv                                             26    18      8    1273
                                              0 COMMON    13     5      8
                                              0 BANK0     13    13      0
 ---------------------------------------------------------------------------------
 Estimated maximum stack depth 5
 ---------------------------------------------------------------------------------

 Call Graph Graphs:

 _main (ROOT)
   _setup
     _I2C_Slave_Init

 _isr (ROOT)
   _readUpdate
     ___fldiv
     ___flge
     ___xxtofl

 Address spaces:
Name               Size   Autos  Total    Cost      Usage
BITCOMMON            E      0       0       0        0.0%
EEDATA             100      0       0       0        0.0%
NULL                 0      0       0       0        0.0%
CODE                 0      0       0       0        0.0%
COMMON               E      E       E       1      100.0%
BITSFR0              0      0       0       1        0.0%
SFR0                 0      0       0       1        0.0%
BITSFR1              0      0       0       2        0.0%
SFR1                 0      0       0       2        0.0%
STACK                0      0       0       2        0.0%
ABS                  0      0      2D       3        0.0%
BITBANK0            50      0       0       4        0.0%
BITSFR3              0      0       0       4        0.0%
SFR3                 0      0       0       4        0.0%
BANK0               50     14      1F       5       38.8%
BITSFR2              0      0       0       5        0.0%
SFR2                 0      0       0       5        0.0%
BITBANK1            50      0       0       6        0.0%
BANK1               50      0       0       7        0.0%
BITBANK3            60      0       0       8        0.0%
BANK3               60      0       0       9        0.0%
BITBANK2            60      0       0      10        0.0%
BANK2               60      0       0      11        0.0%
DATA                 0      0      2D      12        0.0%


Microchip Technology PIC Macro Assembler V2.40 build 20220703182018 
Symbol Table                                                                                   Sun Mar 05 02:09:53 2023

           ___fldiv@aexp 002C             ___fldiv@bexp 002B                        _z 003E  
           ___fldiv@sign 0024              _SSPSTATbits 0094                       l80 0488  
                     l85 0466                       l79 0488                      l147 0482  
                    _GIE 005F                      _isr 03CF                     l1121 046A  
                   l1131 047C                     l1123 0478                     l1133 047F  
                   l1125 0479                     l1127 047A                     l1129 047B  
                   l1361 043F                     l1441 0483                     l1371 0446  
                   l1363 0440                     l1381 044D                     l1373 0447  
                   l1365 0443                     l1357 0435                     l1391 0459  
                   l1383 0450                     l1375 0448                     l1367 0444  
                   l1359 043D                     l1393 045A                     l1385 0451  
                   l1377 044B                     l1369 0445                     l1395 045D  
                   l1387 0452                     l1379 044C                     l1397 045F  
                   l1389 0453                     l1399 0460                     ?_isr 0070  
                   _PEIE 005E                     i1l71 0423                     i1l65 0403  
                   i1l90 0364                     i1l66 03F1                     i1l74 042C  
                   i1l91 0365                     i1l93 0369                     i1l69 0429  
                   i1l96 03CE                     i1l88 0360                     _TMR1 000E  
                   _main 0483                     btemp 007E                     start 0010  
        ___fldiv@new_exp 0025                    ??_isr 002F                    ?_main 0070  
        __end_of___fldiv 01FD                    _ANSEL 0188                    i1l410 033D  
                  i1l411 0356                    i1l407 02D1                    i1l604 01E4  
                  i1l606 01F2                    i1l582 007A                    i1l584 01FC  
                  i1l680 028A                    i1l672 0262                    i1l666 021F  
                  i1l668 02B4                    i1l598 0172                    i1l679 027E  
                  _PORTA 0005                    _PORTB 0006                    _PORTD 0008  
                  _PORTE 0009                    u70_20 02F1                    u70_21 02F0  
                  u71_21 0300                    u71_22 0301                    u71_23 0306  
                  u71_24 0307                    u71_25 030C                    u71_26 030D  
                  u80_20 0067                    u72_20 0319                    u80_21 0066  
                  u72_21 0318                    u81_20 0082                    u81_21 0081  
                  u73_21 0328                    u73_22 0329                    u73_23 032E  
                  _TRISA 0085                    u73_24 032F                    _TRISB 0086  
                  u73_25 0334                    u73_26 0335                    _TRISD 0088  
                  _SSPIE 0463                    _TRISE 0089                    u90_20 012B  
                  u82_20 00A0                    u74_20 0353                    _SSPIF 0063  
                  u90_21 012A                    u82_21 009F                    u74_21 0352  
                  u74_25 034F                    u91_20 0133                    u83_20 00DA  
                  u75_20 0031                    u91_21 0132                    u83_21 00D9  
                  u75_21 0030                    u76_20 0037                    u68_20 02C9  
                  u76_21 0036                    u68_21 02C8                    u92_25 0137  
                  u84_25 00DC                    u93_20 0142                    u77_20 003C  
                  u69_20 02E5                    u93_21 0141                    u77_21 003B  
                  u69_21 02E4                    u85_25 00E5                    u86_20 00F0  
                  u78_20 005C                    u86_21 00EF                    u78_21 005B  
                  u94_25 0145                    u95_20 0156                    u79_20 0062  
                  u95_21 0155                    u79_21 0061                    u87_25 00F3  
                  u96_20 015B                    u88_20 010C                    u96_21 015A  
                  u88_21 010B                    u88_25 0108                    u97_20 016F  
                  u89_20 0121                    u97_21 016E                    u89_25 0114  
                  u89_26 0115                    u89_27 011A                    u98_20 0176  
                  u89_28 011B                    u98_21 0175                    u89_29 0120  
                  u99_20 017C                    u99_21 017B                    _setup 0435  
                  pclath 000A                    status 0003                    wtemp0 007E  
        __initialization 0013             __end_of_main 048C                   ??_main 0034  
                 ?_setup 0070                   _ANSELH 0189                   u100_20 018E  
                 u100_21 018D                   u101_20 019D                   u101_25 0198  
                 u102_20 01BA                   u102_21 01B9                   i1l1211 00BB  
                 i1l1203 009B                   u102_25 01B6                   i1l1221 00DA  
                 i1l1213 00C3                   i1l1205 00A0                   i1l1141 02ED  
                 u110_25 025A                   i1l1301 0207                   i1l1231 010C  
                 i1l1223 00EC                   i1l1215 00CB                   i1l1151 0355  
                 i1l1143 02F1                   i1l1135 02B5                   i1l1311 0233  
                 i1l1303 0217                   u103_20 01D7                   u111_20 0268  
                 u103_21 01D6                   i1l1241 0133                   i1l1233 010D  
                 i1l1225 00F0                   i1l1217 00D3                   i1l1209 00A9  
                 i1l1161 0031                   i1l1145 0315                   i1l1137 02C9  
                 i1l1321 0269                   u111_21 0267                   i1l1313 0240  
                 i1l1305 0227                   i1l1401 03CF                   i1l1251 014C  
                 i1l1243 0135                   i1l1235 0121                   i1l1227 00F1  
                 i1l1219 00D5                   i1l1171 0045                   i1l1163 0032  
                 i1l1155 0024                   i1l1147 0319                   i1l1139 02E5  
                 i1l1331 02A2                   i1l1323 0274                   i1l1315 0247  
                 i1l1411 03DF                   i1l1403 03D3                   u103_25 01D3  
                 i1l1261 016F                   i1l1245 013E                   i1l1253 0152  
                 i1l1229 00FA                   i1l1237 0125                   i1l1181 005C  
                 i1l1165 0037                   i1l1173 0047                   i1l1157 0029  
                 i1l1149 0353                   i1l1333 02A7                   i1l1325 0278  
                 i1l1317 024B                   i1l1309 0230                   i1l1341 0357  
                 i1l1421 03EF                   i1l1413 03E0                   i1l1405 03D8  
                 i1l1271 018E                   i1l1255 0156                   i1l1247 0142  
                 i1l1239 012B                   i1l1191 0070                   i1l1183 005D  
                 i1l1175 004F                   i1l1167 003C                   i1l1159 002D  
                 i1l1335 02AB                   i1l1327 0282                   i1l1319 0259  
                 i1l1351 03B8                   i1l1343 035E                   i1l1431 040F  
                 i1l1423 03F0                   i1l1415 03E1                   i1l1407 03DC  
                 u104_20 01EC                   u120_20 0369                   u104_21 01EB  
                 i1l1281 01D7                   i1l1273 01A7                   i1l1265 0177  
                 i1l1257 0157                   i1l1249 0143                   i1l1185 0062  
                 i1l1193 0072                   i1l1177 0054                   i1l1169 0044  
                 i1l1337 02AC                   i1l1329 028C                   i1l1353 03BF  
                 i1l1345 036A                   u120_21 0368                   i1l1433 0412  
                 i1l1425 03F7                   i1l1417 03E7                   i1l1409 03DE  
                 i1l1291 01EE                   i1l1283 01DB                   i1l1267 017C  
                 i1l1275 01AD                   i1l1259 015B                   i1l1195 0082  
                 i1l1187 0067                   i1l1179 0058                   i1l1355 03C3  
                 i1l1347 0380                   i1l1435 0417                   i1l1427 0407  
                 i1l1419 03EB                   i1l1285 01E3                   i1l1277 01BA  
                 i1l1269 018A                   i1l1197 008E                   i1l1189 006F  
                 u112_25 026D                   i1l1349 039F                   i1l1437 041B  
                 i1l1429 040B                   i1l1287 01E8                   i1l1279 01C8  
                 i1l1199 0092                   i1l1439 041C                   u113_20 0278  
                 u105_20 0203                   u121_20 03B8                   i1l1289 01EC  
                 u113_21 0277                   u105_21 0202                   i1l1297 01FE  
                 u121_21 03B7                   i1l1299 0203                   u114_20 027E  
                 u106_20 0207                   u130_20 0429                   u122_20 03D3  
                 u114_21 027D                   u106_21 0206                   u130_21 0428  
                 u122_21 03D2                   u115_20 0282                   u107_20 0227  
                 u123_20 03D8                   u115_21 0281                   u107_21 0226  
                 u123_21 03D7                   u131_27 03FF                   u116_20 0297  
                 u124_20 03DC                   u124_21 03DB                   u116_25 0292  
                 u108_25 0238                   u132_27 0420                   u117_20 02A7  
                 u109_20 0246                   u125_20 03E7                   u117_21 02A6  
                 u109_21 0245                   u125_21 03E6                   u133_27 03C9  
                 u118_20 02AB                   u126_20 03EB                   u118_21 02AA  
                 u126_21 03EA                   u119_20 0364                   u127_20 03F7  
                 u119_21 0363                   u127_21 03F6                   u128_20 0407  
                 u128_21 0406                   u129_20 040B                   u129_21 040A  
                 _SSPADD 0093                   _SSPBUF 0013                   _SSPCON 0014  
       __end_of___xxtofl 02B5                   ___flge 02B5                ??___fldiv 0078  
                 saved_w 007E               ___flge@ff1 0070               ___flge@ff2 0074  
           ___xxtofl@arg 007A             ___xxtofl@exp 0079             ___xxtofl@val 0070  
__end_of__initialization 0020           __pcstackCOMMON 0070            __end_of_setup 0467  
                ??_setup 0034    I2C_Slave_Init@address 0033               __pbssBANK0 0034  
             __pmaintext 0483                  ?___flge 0070               __pintentry 0004  
              ?___xxtofl 0070                  _SSPCON2 0091                  _SSPSTAT 0094  
                ___fldiv 0024               _readUpdate 0357                  __ptext1 0435  
                __ptext2 0467                  __ptext3 03CF                  __ptext4 0357  
                __ptext5 01FD                  __ptext6 02B5                  __ptext7 0024  
              _T1CONbits 0010               ??___xxtofl 0074     end_of_initialization 0020  
         _I2C_Slave_Init 0467                _PORTDbits 0008            ___xxtofl@sign 0078  
              _TRISCbits 0087              ___fldiv@grs 0027              ___fldiv@rem 0020  
 __end_of_I2C_Slave_Init 0483           __end_of___flge 0357              ?_readUpdate 0070  
    start_initialization 0013              __end_of_isr 0435          ?_I2C_Slave_Init 0070  
               ??___flge 0078                ___fldiv@a 0070                ___fldiv@b 0074  
              ___latbits 0002            __pcstackBANK0 0020                 ?___fldiv 0070  
      interrupt_function 0004                 _PIE1bits 008C                 _PIR1bits 000C  
            _distance_cm 0038                _proximity 003C             ??_readUpdate 002D  
               ___xxtofl 01FD         ??_I2C_Slave_Init 0033                 _duration 0034  
     __end_of_readUpdate 03CF               _INTCONbits 000B                 intlevel1 0000  
             _OSCCONbits 008F              _SSPCON2bits 0091               _SSPCONbits 0014  
