

Microchip MPLAB XC8 Assembler V2.40 build 20220703182018 
                                                                                               Tue Mar 07 06:18:10 2023

Microchip MPLAB XC8 C Compiler v2.40 (Free license) build 20220703182018 Og1 
     1                           	processor	16F887
     2                           	pagewidth 120
     3                           	opt	flic
     4                           	psect	cinit,global,class=CODE,merge=1,delta=2
     5                           	psect	bssBANK0,global,class=BANK0,space=1,delta=1,noexec
     6                           	psect	cstackBANK1,global,class=BANK1,space=1,delta=1,noexec
     7                           	psect	cstackCOMMON,global,class=COMMON,space=1,delta=1,noexec
     8                           	psect	cstackBANK0,global,class=BANK0,space=1,delta=1,noexec
     9                           	psect	maintext,global,class=CODE,split=1,delta=2
    10                           	psect	text1,local,class=CODE,merge=1,delta=2
    11                           	psect	text2,local,class=CODE,merge=1,delta=2
    12                           	psect	text3,local,class=CODE,merge=1,delta=2
    13                           	psect	intentry,global,class=CODE,delta=2
    14                           	psect	text4,local,class=CODE,merge=1,delta=2
    15                           	psect	text5,local,class=CODE,merge=1,delta=2,group=1
    16                           	psect	text6,local,class=CODE,merge=1,delta=2,group=1
    17                           	psect	text7,local,class=CODE,merge=1,delta=2,group=1
    18                           	psect	text8,local,class=CODE,merge=1,delta=2
    19                           	psect	text9,local,class=CODE,merge=1,delta=2
    20                           	psect	text10,local,class=CODE,merge=1,delta=2
    21                           	psect	text11,local,class=CODE,merge=1,delta=2,group=1
    22                           	psect	idloc,global,abs,ovrld,class=IDLOC,space=5,delta=2,noexec
    23                           	psect	config,global,abs,ovrld,class=CONFIG,space=4,delta=2,noexec
    24                           	dabs	1,0x7E,2
    25     0000                     
    26                           ; Version 2.40
    27                           ; Generated 17/11/2021 GMT
    28                           ; 
    29                           ; Copyright © 2021, Microchip Technology Inc. and its subsidiaries ("Microchip")
    30                           ; All rights reserved.
    31                           ; 
    32                           ; This software is developed by Microchip Technology Inc. and its subsidiaries ("Microch
      +                          ip").
    33                           ; 
    34                           ; Redistribution and use in source and binary forms, with or without modification, are
    35                           ; permitted provided that the following conditions are met:
    36                           ; 
    37                           ;     1. Redistributions of source code must retain the above copyright notice, this lis
      +                          t of
    38                           ;        conditions and the following disclaimer.
    39                           ; 
    40                           ;     2. Redistributions in binary form must reproduce the above copyright notice, this 
      +                          list
    41                           ;        of conditions and the following disclaimer in the documentation and/or other
    42                           ;        materials provided with the distribution. Publication is not required when
    43                           ;        this file is used in an embedded application.
    44                           ; 
    45                           ;     3. Microchip's name may not be used to endorse or promote products derived from th
      +                          is
    46                           ;        software without specific prior written permission.
    47                           ; 
    48                           ; THIS SOFTWARE IS PROVIDED BY MICROCHIP "AS IS" AND ANY EXPRESS OR IMPLIED WARRANTIES,
    49                           ; INCLUDING, BUT NOT LIMITED TO, THE IMPLIED WARRANTIES OF MERCHANTABILITY AND FITNESS F
      +                          OR
    50                           ; PURPOSE ARE DISCLAIMED.  IN NO EVENT SHALL MICROCHIP BE LIABLE FOR ANY DIRECT, INDIREC
      +                          T,
    51                           ; INCIDENTAL, SPECIAL, EXEMPLARY, OR CONSEQUENTIAL DAMAGES (INCLUDING BUT NOT LIMITED TO
    52                           ; PROCUREMENT OF SUBSTITUTE GOODS OR SERVICES; LOSS OF USE, DATA OR PROFITS; OR BUSINESS
    53                           ; INTERRUPTION) HOWSOEVER CAUSED AND ON ANY THEORY OF LIABILITY, WHETHER IN CONTRACT, ST
      +                          RICT
    54                           ; LIABILITY, OR TORT (INCLUDING NEGLIGENCE OR OTHERWISE) ARISING IN ANY WAY OUT OF THE U
      +                          SE OF
    55                           ; THIS SOFTWARE, EVEN IF ADVISED OF THE POSSIBILITY OF SUCH DAMAGE.
    56                           ; 
    57                           ; 
    58                           ; Code-generator required, PIC16F887 Definitions
    59                           ; 
    60                           ; SFR Addresses
    61     0000                     	;# 
    62     0001                     	;# 
    63     0002                     	;# 
    64     0003                     	;# 
    65     0004                     	;# 
    66     0005                     	;# 
    67     0006                     	;# 
    68     0007                     	;# 
    69     0008                     	;# 
    70     0009                     	;# 
    71     000A                     	;# 
    72     000B                     	;# 
    73     000C                     	;# 
    74     000D                     	;# 
    75     000E                     	;# 
    76     000E                     	;# 
    77     000F                     	;# 
    78     0010                     	;# 
    79     0011                     	;# 
    80     0012                     	;# 
    81     0013                     	;# 
    82     0014                     	;# 
    83     0015                     	;# 
    84     0015                     	;# 
    85     0016                     	;# 
    86     0017                     	;# 
    87     0018                     	;# 
    88     0019                     	;# 
    89     001A                     	;# 
    90     001B                     	;# 
    91     001B                     	;# 
    92     001C                     	;# 
    93     001D                     	;# 
    94     001E                     	;# 
    95     001F                     	;# 
    96     0081                     	;# 
    97     0085                     	;# 
    98     0086                     	;# 
    99     0087                     	;# 
   100     0088                     	;# 
   101     0089                     	;# 
   102     008C                     	;# 
   103     008D                     	;# 
   104     008E                     	;# 
   105     008F                     	;# 
   106     0090                     	;# 
   107     0091                     	;# 
   108     0092                     	;# 
   109     0093                     	;# 
   110     0093                     	;# 
   111     0093                     	;# 
   112     0094                     	;# 
   113     0095                     	;# 
   114     0096                     	;# 
   115     0097                     	;# 
   116     0098                     	;# 
   117     0099                     	;# 
   118     009A                     	;# 
   119     009B                     	;# 
   120     009C                     	;# 
   121     009D                     	;# 
   122     009E                     	;# 
   123     009F                     	;# 
   124     0105                     	;# 
   125     0107                     	;# 
   126     0108                     	;# 
   127     0109                     	;# 
   128     010C                     	;# 
   129     010C                     	;# 
   130     010D                     	;# 
   131     010E                     	;# 
   132     010F                     	;# 
   133     0185                     	;# 
   134     0187                     	;# 
   135     0188                     	;# 
   136     0189                     	;# 
   137     018C                     	;# 
   138     018D                     	;# 
   139     0000                     	;# 
   140     0001                     	;# 
   141     0002                     	;# 
   142     0003                     	;# 
   143     0004                     	;# 
   144     0005                     	;# 
   145     0006                     	;# 
   146     0007                     	;# 
   147     0008                     	;# 
   148     0009                     	;# 
   149     000A                     	;# 
   150     000B                     	;# 
   151     000C                     	;# 
   152     000D                     	;# 
   153     000E                     	;# 
   154     000E                     	;# 
   155     000F                     	;# 
   156     0010                     	;# 
   157     0011                     	;# 
   158     0012                     	;# 
   159     0013                     	;# 
   160     0014                     	;# 
   161     0015                     	;# 
   162     0015                     	;# 
   163     0016                     	;# 
   164     0017                     	;# 
   165     0018                     	;# 
   166     0019                     	;# 
   167     001A                     	;# 
   168     001B                     	;# 
   169     001B                     	;# 
   170     001C                     	;# 
   171     001D                     	;# 
   172     001E                     	;# 
   173     001F                     	;# 
   174     0081                     	;# 
   175     0085                     	;# 
   176     0086                     	;# 
   177     0087                     	;# 
   178     0088                     	;# 
   179     0089                     	;# 
   180     008C                     	;# 
   181     008D                     	;# 
   182     008E                     	;# 
   183     008F                     	;# 
   184     0090                     	;# 
   185     0091                     	;# 
   186     0092                     	;# 
   187     0093                     	;# 
   188     0093                     	;# 
   189     0093                     	;# 
   190     0094                     	;# 
   191     0095                     	;# 
   192     0096                     	;# 
   193     0097                     	;# 
   194     0098                     	;# 
   195     0099                     	;# 
   196     009A                     	;# 
   197     009B                     	;# 
   198     009C                     	;# 
   199     009D                     	;# 
   200     009E                     	;# 
   201     009F                     	;# 
   202     0105                     	;# 
   203     0107                     	;# 
   204     0108                     	;# 
   205     0109                     	;# 
   206     010C                     	;# 
   207     010C                     	;# 
   208     010D                     	;# 
   209     010E                     	;# 
   210     010F                     	;# 
   211     0185                     	;# 
   212     0187                     	;# 
   213     0188                     	;# 
   214     0189                     	;# 
   215     018C                     	;# 
   216     018D                     	;# 
   217     0000                     	;# 
   218     0001                     	;# 
   219     0002                     	;# 
   220     0003                     	;# 
   221     0004                     	;# 
   222     0005                     	;# 
   223     0006                     	;# 
   224     0007                     	;# 
   225     0008                     	;# 
   226     0009                     	;# 
   227     000A                     	;# 
   228     000B                     	;# 
   229     000C                     	;# 
   230     000D                     	;# 
   231     000E                     	;# 
   232     000E                     	;# 
   233     000F                     	;# 
   234     0010                     	;# 
   235     0011                     	;# 
   236     0012                     	;# 
   237     0013                     	;# 
   238     0014                     	;# 
   239     0015                     	;# 
   240     0015                     	;# 
   241     0016                     	;# 
   242     0017                     	;# 
   243     0018                     	;# 
   244     0019                     	;# 
   245     001A                     	;# 
   246     001B                     	;# 
   247     001B                     	;# 
   248     001C                     	;# 
   249     001D                     	;# 
   250     001E                     	;# 
   251     001F                     	;# 
   252     0081                     	;# 
   253     0085                     	;# 
   254     0086                     	;# 
   255     0087                     	;# 
   256     0088                     	;# 
   257     0089                     	;# 
   258     008C                     	;# 
   259     008D                     	;# 
   260     008E                     	;# 
   261     008F                     	;# 
   262     0090                     	;# 
   263     0091                     	;# 
   264     0092                     	;# 
   265     0093                     	;# 
   266     0093                     	;# 
   267     0093                     	;# 
   268     0094                     	;# 
   269     0095                     	;# 
   270     0096                     	;# 
   271     0097                     	;# 
   272     0098                     	;# 
   273     0099                     	;# 
   274     009A                     	;# 
   275     009B                     	;# 
   276     009C                     	;# 
   277     009D                     	;# 
   278     009E                     	;# 
   279     009F                     	;# 
   280     0105                     	;# 
   281     0107                     	;# 
   282     0108                     	;# 
   283     0109                     	;# 
   284     010C                     	;# 
   285     010C                     	;# 
   286     010D                     	;# 
   287     010E                     	;# 
   288     010F                     	;# 
   289     0185                     	;# 
   290     0187                     	;# 
   291     0188                     	;# 
   292     0189                     	;# 
   293     018C                     	;# 
   294     018D                     	;# 
   295     0000                     	;# 
   296     0001                     	;# 
   297     0002                     	;# 
   298     0003                     	;# 
   299     0004                     	;# 
   300     0005                     	;# 
   301     0006                     	;# 
   302     0007                     	;# 
   303     0008                     	;# 
   304     0009                     	;# 
   305     000A                     	;# 
   306     000B                     	;# 
   307     000C                     	;# 
   308     000D                     	;# 
   309     000E                     	;# 
   310     000E                     	;# 
   311     000F                     	;# 
   312     0010                     	;# 
   313     0011                     	;# 
   314     0012                     	;# 
   315     0013                     	;# 
   316     0014                     	;# 
   317     0015                     	;# 
   318     0015                     	;# 
   319     0016                     	;# 
   320     0017                     	;# 
   321     0018                     	;# 
   322     0019                     	;# 
   323     001A                     	;# 
   324     001B                     	;# 
   325     001B                     	;# 
   326     001C                     	;# 
   327     001D                     	;# 
   328     001E                     	;# 
   329     001F                     	;# 
   330     0081                     	;# 
   331     0085                     	;# 
   332     0086                     	;# 
   333     0087                     	;# 
   334     0088                     	;# 
   335     0089                     	;# 
   336     008C                     	;# 
   337     008D                     	;# 
   338     008E                     	;# 
   339     008F                     	;# 
   340     0090                     	;# 
   341     0091                     	;# 
   342     0092                     	;# 
   343     0093                     	;# 
   344     0093                     	;# 
   345     0093                     	;# 
   346     0094                     	;# 
   347     0095                     	;# 
   348     0096                     	;# 
   349     0097                     	;# 
   350     0098                     	;# 
   351     0099                     	;# 
   352     009A                     	;# 
   353     009B                     	;# 
   354     009C                     	;# 
   355     009D                     	;# 
   356     009E                     	;# 
   357     009F                     	;# 
   358     0105                     	;# 
   359     0107                     	;# 
   360     0108                     	;# 
   361     0109                     	;# 
   362     010C                     	;# 
   363     010C                     	;# 
   364     010D                     	;# 
   365     010E                     	;# 
   366     010F                     	;# 
   367     0185                     	;# 
   368     0187                     	;# 
   369     0188                     	;# 
   370     0189                     	;# 
   371     018C                     	;# 
   372     018D                     	;# 
   373     000E                     _TMR1	set	14
   374     0008                     _PORTDbits	set	8
   375     0014                     _SSPCON	set	20
   376     0010                     _T1CONbits	set	16
   377     0009                     _PORTE	set	9
   378     0006                     _PORTB	set	6
   379     0005                     _PORTA	set	5
   380     000B                     _INTCONbits	set	11
   381     0008                     _PORTD	set	8
   382     0013                     _SSPBUF	set	19
   383     0014                     _SSPCONbits	set	20
   384     000C                     _PIR1bits	set	12
   385     0063                     _SSPIF	set	99
   386     005E                     _PEIE	set	94
   387     005F                     _GIE	set	95
   388     0088                     _TRISDbits	set	136
   389     0091                     _SSPCON2bits	set	145
   390     0087                     _TRISCbits	set	135
   391     0094                     _SSPSTAT	set	148
   392     0093                     _SSPADD	set	147
   393     0091                     _SSPCON2	set	145
   394     008F                     _OSCCONbits	set	143
   395     008C                     _PIE1bits	set	140
   396     0089                     _TRISE	set	137
   397     0088                     _TRISD	set	136
   398     0086                     _TRISB	set	134
   399     0085                     _TRISA	set	133
   400     0094                     _SSPSTATbits	set	148
   401     0463                     _SSPIE	set	1123
   402     0189                     _ANSELH	set	393
   403     0188                     _ANSEL	set	392
   404                           
   405                           	psect	cinit
   406     0013                     start_initialization:	
   407                           ; #config settings
   408                           
   409     0013                     __initialization:
   410                           
   411                           ; Clear objects allocated to BANK0
   412     0013  1283               	bcf	3,5	;RP0=0, select bank0
   413     0014  1303               	bcf	3,6	;RP1=0, select bank0
   414     0015  01DA               	clrf	__pbssBANK0& (0+127)
   415     0016  01DB               	clrf	(__pbssBANK0+1)& (0+127)
   416     0017  01DC               	clrf	(__pbssBANK0+2)& (0+127)
   417     0018  01DD               	clrf	(__pbssBANK0+3)& (0+127)
   418     0019  01DE               	clrf	(__pbssBANK0+4)& (0+127)
   419     001A  01DF               	clrf	(__pbssBANK0+5)& (0+127)
   420     001B  01E0               	clrf	(__pbssBANK0+6)& (0+127)
   421     001C  01E1               	clrf	(__pbssBANK0+7)& (0+127)
   422     001D  01E2               	clrf	(__pbssBANK0+8)& (0+127)
   423     001E  01E3               	clrf	(__pbssBANK0+9)& (0+127)
   424     001F  01E4               	clrf	(__pbssBANK0+10)& (0+127)
   425     0020  01E5               	clrf	(__pbssBANK0+11)& (0+127)
   426     0021  01E6               	clrf	(__pbssBANK0+12)& (0+127)
   427     0022                     end_of_initialization:	
   428                           ;End of C runtime variable initialization code
   429                           
   430     0022                     __end_of__initialization:
   431     0022  0183               	clrf	3
   432     0023  120A  118A  2FA1   	ljmp	_main	;jump to C main() function
   433                           
   434                           	psect	bssBANK0
   435     005A                     __pbssBANK0:
   436     005A                     _temperature:
   437     005A                     	ds	4
   438     005E                     _timeout:
   439     005E                     	ds	2
   440     0060                     _z:
   441     0060                     	ds	1
   442     0061                     _check:
   443     0061                     	ds	1
   444     0062                     _paridad:
   445     0062                     	ds	1
   446     0063                     _temperatura_dec:
   447     0063                     	ds	1
   448     0064                     _temperatura:
   449     0064                     	ds	1
   450     0065                     _humedad_dec:
   451     0065                     	ds	1
   452     0066                     _humedad:
   453     0066                     	ds	1
   454                           
   455                           	psect	cstackBANK1
   456     00A0                     __pcstackBANK1:
   457     00A0                     ??_I2C_Slave_Init:
   458     00A0                     I2C_Slave_Init@address:	
   459                           ; 1 bytes @ 0x0
   460                           
   461                           
   462                           ; 1 bytes @ 0x0
   463     00A0                     	ds	1
   464     00A1                     ??_setup:
   465     00A1                     ??_main:	
   466                           ; 1 bytes @ 0x1
   467                           
   468                           
   469                           	psect	cstackCOMMON
   470     0070                     __pcstackCOMMON:	
   471                           ; 1 bytes @ 0x1
   472                           
   473     0070                     ?_readTemp:
   474     0070                     ?_setup:	
   475                           ; 1 bytes @ 0x0
   476                           
   477     0070                     ?_I2C_Slave_Init:	
   478                           ; 1 bytes @ 0x0
   479                           
   480     0070                     ?_DHT11_Start:	
   481                           ; 1 bytes @ 0x0
   482                           
   483     0070                     ??_DHT11_Start:	
   484                           ; 1 bytes @ 0x0
   485                           
   486     0070                     ?_isr:	
   487                           ; 1 bytes @ 0x0
   488                           
   489     0070                     ?_main:	
   490                           ; 1 bytes @ 0x0
   491                           
   492     0070                     ?_DHT11_Response:	
   493                           ; 1 bytes @ 0x0
   494                           
   495     0070                     ?_DHT11_Read:	
   496                           ; 2 bytes @ 0x0
   497                           
   498     0070                     ?___fltol:	
   499                           ; 2 bytes @ 0x0
   500                           
   501     0070                     ?___xxtofl:	
   502                           ; 4 bytes @ 0x0
   503                           
   504     0070                     ___fltol@f1:	
   505                           ; 4 bytes @ 0x0
   506                           
   507     0070                     ___xxtofl@val:	
   508                           ; 4 bytes @ 0x0
   509                           
   510                           
   511                           ; 4 bytes @ 0x0
   512     0070                     	ds	2
   513     0072                     ??_DHT11_Response:
   514     0072                     ??_DHT11_Read:	
   515                           ; 1 bytes @ 0x2
   516                           
   517                           
   518                           ; 1 bytes @ 0x2
   519     0072                     	ds	2
   520     0074                     ??___fltol:
   521     0074                     ??___xxtofl:	
   522                           ; 1 bytes @ 0x4
   523                           
   524                           
   525                           ; 1 bytes @ 0x4
   526     0074                     	ds	1
   527     0075                     DHT11_Read@_data:
   528                           
   529                           ; 2 bytes @ 0x5
   530     0075                     	ds	2
   531     0077                     DHT11_Read@i:
   532                           
   533                           ; 1 bytes @ 0x7
   534     0077                     	ds	1
   535     0078                     ___fltol@sign1:
   536     0078                     ___xxtofl@sign:	
   537                           ; 1 bytes @ 0x8
   538                           
   539                           
   540                           ; 1 bytes @ 0x8
   541     0078                     	ds	1
   542     0079                     ___fltol@exp1:
   543     0079                     ___xxtofl@exp:	
   544                           ; 1 bytes @ 0x9
   545                           
   546                           
   547                           ; 1 bytes @ 0x9
   548     0079                     	ds	1
   549     007A                     ___xxtofl@arg:
   550                           
   551                           ; 4 bytes @ 0xA
   552     007A                     	ds	4
   553                           
   554                           	psect	cstackBANK0
   555     0020                     __pcstackBANK0:
   556     0020                     ?___fldiv:
   557     0020                     ___fldiv@a:	
   558                           ; 4 bytes @ 0x0
   559                           
   560                           
   561                           ; 4 bytes @ 0x0
   562     0020                     	ds	4
   563     0024                     ___fldiv@b:
   564                           
   565                           ; 4 bytes @ 0x4
   566     0024                     	ds	4
   567     0028                     ??___fldiv:
   568                           
   569                           ; 1 bytes @ 0x8
   570     0028                     	ds	5
   571     002D                     ___fldiv@rem:
   572                           
   573                           ; 4 bytes @ 0xD
   574     002D                     	ds	4
   575     0031                     ___fldiv@sign:
   576                           
   577                           ; 1 bytes @ 0x11
   578     0031                     	ds	1
   579     0032                     ___fldiv@new_exp:
   580                           
   581                           ; 2 bytes @ 0x12
   582     0032                     	ds	2
   583     0034                     ___fldiv@grs:
   584                           
   585                           ; 4 bytes @ 0x14
   586     0034                     	ds	4
   587     0038                     ___fldiv@bexp:
   588                           
   589                           ; 1 bytes @ 0x18
   590     0038                     	ds	1
   591     0039                     ___fldiv@aexp:
   592                           
   593                           ; 1 bytes @ 0x19
   594     0039                     	ds	1
   595     003A                     ?___fladd:
   596     003A                     ___fladd@b:	
   597                           ; 4 bytes @ 0x1A
   598                           
   599                           
   600                           ; 4 bytes @ 0x1A
   601     003A                     	ds	4
   602     003E                     ___fladd@a:
   603                           
   604                           ; 4 bytes @ 0x1E
   605     003E                     	ds	4
   606     0042                     ??___fladd:
   607                           
   608                           ; 1 bytes @ 0x22
   609     0042                     	ds	8
   610     004A                     ___fladd@signs:
   611                           
   612                           ; 1 bytes @ 0x2A
   613     004A                     	ds	1
   614     004B                     ___fladd@aexp:
   615                           
   616                           ; 1 bytes @ 0x2B
   617     004B                     	ds	1
   618     004C                     ___fladd@bexp:
   619                           
   620                           ; 1 bytes @ 0x2C
   621     004C                     	ds	1
   622     004D                     ___fladd@grs:
   623                           
   624                           ; 1 bytes @ 0x2D
   625     004D                     	ds	1
   626     004E                     ??_readTemp:
   627                           
   628                           ; 1 bytes @ 0x2E
   629     004E                     	ds	8
   630     0056                     ??_isr:
   631                           
   632                           ; 1 bytes @ 0x36
   633     0056                     	ds	4
   634                           
   635                           	psect	maintext
   636     07A1                     __pmaintext:	
   637 ;;
   638 ;;Main: autosize = 0, tempsize = 0, incstack = 0, save=0
   639 ;;
   640 ;; *************** function _main *****************
   641 ;; Defined at:
   642 ;;		line 98 in file "main.c"
   643 ;; Parameters:    Size  Location     Type
   644 ;;		None
   645 ;; Auto vars:     Size  Location     Type
   646 ;;		None
   647 ;; Return value:  Size  Location     Type
   648 ;;                  1    wreg      void 
   649 ;; Registers used:
   650 ;;		wreg, status,2, status,0, pclath, cstack
   651 ;; Tracked objects:
   652 ;;		On entry : B00/0
   653 ;;		On exit  : 0/0
   654 ;;		Unchanged: 0/0
   655 ;; Data sizes:     COMMON   BANK0   BANK1   BANK3   BANK2
   656 ;;      Params:         0       0       0       0       0
   657 ;;      Locals:         0       0       0       0       0
   658 ;;      Temps:          0       0       0       0       0
   659 ;;      Totals:         0       0       0       0       0
   660 ;;Total ram usage:        0 bytes
   661 ;; Hardware stack levels required when called: 5
   662 ;; This function calls:
   663 ;;		_setup
   664 ;; This function is called by:
   665 ;;		Startup code after reset
   666 ;; This function uses a non-reentrant model
   667 ;;
   668                           
   669     07A1                     _main:	
   670                           ;psect for function _main
   671                           
   672     07A1                     l2028:	
   673                           ;incstack = 0
   674                           ; Regs used in _main: [wreg+status,2+status,0+pclath+cstack]
   675                           
   676                           
   677                           ;main.c: 99:     setup();
   678     07A1  120A  118A  273B  120A  118A  	fcall	_setup
   679     07A6                     l90:	
   680                           ;main.c: 101:     while(1){
   681                           
   682     07A6                     l91:	
   683                           ;main.c: 103:     }
   684                           
   685     07A6  2FA6               	goto	l90
   686     07A7  120A  118A  2810   	ljmp	start
   687     07AA                     __end_of_main:
   688                           
   689                           	psect	text1
   690     073B                     __ptext1:	
   691 ;; *************** function _setup *****************
   692 ;; Defined at:
   693 ;;		line 111 in file "main.c"
   694 ;; Parameters:    Size  Location     Type
   695 ;;		None
   696 ;; Auto vars:     Size  Location     Type
   697 ;;		None
   698 ;; Return value:  Size  Location     Type
   699 ;;                  1    wreg      void 
   700 ;; Registers used:
   701 ;;		wreg, status,2, status,0, pclath, cstack
   702 ;; Tracked objects:
   703 ;;		On entry : 0/0
   704 ;;		On exit  : 0/0
   705 ;;		Unchanged: 0/0
   706 ;; Data sizes:     COMMON   BANK0   BANK1   BANK3   BANK2
   707 ;;      Params:         0       0       0       0       0
   708 ;;      Locals:         0       0       0       0       0
   709 ;;      Temps:          0       0       0       0       0
   710 ;;      Totals:         0       0       0       0       0
   711 ;;Total ram usage:        0 bytes
   712 ;; Hardware stack levels used: 1
   713 ;; Hardware stack levels required when called: 4
   714 ;; This function calls:
   715 ;;		_I2C_Slave_Init
   716 ;; This function is called by:
   717 ;;		_main
   718 ;; This function uses a non-reentrant model
   719 ;;
   720                           
   721     073B                     _setup:	
   722                           ;psect for function _setup
   723                           
   724     073B                     l1918:	
   725                           ;incstack = 0
   726                           ; Regs used in _setup: [wreg+status,2+status,0+pclath+cstack]
   727                           
   728                           
   729                           ;main.c: 114:     ANSEL = 0b00000000;
   730     073B  1683               	bsf	3,5	;RP0=1, select bank3
   731     073C  1703               	bsf	3,6	;RP1=1, select bank3
   732     073D  0188               	clrf	8	;volatile
   733                           
   734                           ;main.c: 115:     ANSELH = 0;
   735     073E  0189               	clrf	9	;volatile
   736                           
   737                           ;main.c: 118:     TRISA = 0b00000000;
   738     073F  1683               	bsf	3,5	;RP0=1, select bank1
   739     0740  1303               	bcf	3,6	;RP1=0, select bank1
   740     0741  0185               	clrf	5	;volatile
   741                           
   742                           ;main.c: 119:     TRISB = 0b00000000;
   743     0742  0186               	clrf	6	;volatile
   744                           
   745                           ;main.c: 121:     TRISD = 0b00000000;
   746     0743  0188               	clrf	8	;volatile
   747                           
   748                           ;main.c: 122:     TRISE = 0b00000000;
   749     0744  0189               	clrf	9	;volatile
   750                           
   751                           ;main.c: 124:     PORTA = 0b00000000;
   752     0745  1283               	bcf	3,5	;RP0=0, select bank0
   753     0746  1303               	bcf	3,6	;RP1=0, select bank0
   754     0747  0185               	clrf	5	;volatile
   755                           
   756                           ;main.c: 125:     PORTB = 0b00000000;
   757     0748  0186               	clrf	6	;volatile
   758                           
   759                           ;main.c: 127:     PORTD = 0b00000000;
   760     0749  0188               	clrf	8	;volatile
   761                           
   762                           ;main.c: 128:     PORTE = 0b00000000;
   763     074A  0189               	clrf	9	;volatile
   764     074B                     l1920:
   765                           
   766                           ;main.c: 131:     INTCONbits.GIE = 1;
   767     074B  178B               	bsf	11,7	;volatile
   768     074C                     l1922:
   769                           
   770                           ;main.c: 132:     INTCONbits.PEIE = 0;
   771     074C  130B               	bcf	11,6	;volatile
   772     074D                     l1924:
   773                           
   774                           ;main.c: 133:     PIE1bits.SSPIE = 0;
   775     074D  1683               	bsf	3,5	;RP0=1, select bank1
   776     074E  1303               	bcf	3,6	;RP1=0, select bank1
   777     074F  118C               	bcf	12,3	;volatile
   778     0750                     l1926:
   779                           
   780                           ;main.c: 134:     PIE1bits.ADIE = 0;
   781     0750  130C               	bcf	12,6	;volatile
   782     0751                     l1928:
   783                           
   784                           ;main.c: 135:     INTCONbits.TMR0IE = 0;
   785     0751  128B               	bcf	11,5	;volatile
   786     0752                     l1930:
   787                           
   788                           ;main.c: 137:     PIR1bits.SSPIF = 0;
   789     0752  1283               	bcf	3,5	;RP0=0, select bank0
   790     0753  1303               	bcf	3,6	;RP1=0, select bank0
   791     0754  118C               	bcf	12,3	;volatile
   792     0755                     l1932:
   793                           
   794                           ;main.c: 138:     PIR1bits.ADIF = 0;
   795     0755  130C               	bcf	12,6	;volatile
   796     0756                     l1934:
   797                           
   798                           ;main.c: 139:     INTCONbits.RBIF = 0;
   799     0756  100B               	bcf	11,0	;volatile
   800     0757                     l1936:
   801                           
   802                           ;main.c: 140:     INTCONbits.T0IF = 0;
   803     0757  110B               	bcf	11,2	;volatile
   804     0758                     l1938:
   805                           
   806                           ;main.c: 143:     OSCCONbits.IRCF = 0b111;
   807     0758  3070               	movlw	112
   808     0759  1683               	bsf	3,5	;RP0=1, select bank1
   809     075A  1303               	bcf	3,6	;RP1=0, select bank1
   810     075B  048F               	iorwf	15,f	;volatile
   811     075C                     l1940:
   812                           
   813                           ;main.c: 144:     OSCCONbits.SCS = 1;
   814     075C  140F               	bsf	15,0	;volatile
   815     075D                     l1942:
   816                           
   817                           ;main.c: 147:     T1CONbits.TMR1CS = 0;
   818     075D  1283               	bcf	3,5	;RP0=0, select bank0
   819     075E  1303               	bcf	3,6	;RP1=0, select bank0
   820     075F  1090               	bcf	16,1	;volatile
   821     0760                     l1944:
   822                           
   823                           ;main.c: 148:     T1CONbits.T1CKPS = 0b01;
   824     0760  0810               	movf	16,w	;volatile
   825     0761  39CF               	andlw	-49
   826     0762  3810               	iorlw	16
   827     0763  0090               	movwf	16	;volatile
   828     0764                     l1946:
   829                           
   830                           ;main.c: 149:     T1CONbits.TMR1ON = 0;
   831     0764  1010               	bcf	16,0	;volatile
   832     0765                     l1948:
   833                           
   834                           ;main.c: 151:     I2C_Slave_Init(0x110);
   835     0765  3010               	movlw	16
   836     0766  120A  118A  2787  120A  118A  	fcall	_I2C_Slave_Init
   837     076B                     l96:
   838     076B  0008               	return
   839     076C                     __end_of_setup:
   840                           
   841                           	psect	text2
   842     0787                     __ptext2:	
   843 ;; *************** function _I2C_Slave_Init *****************
   844 ;; Defined at:
   845 ;;		line 90 in file "IIC.c"
   846 ;; Parameters:    Size  Location     Type
   847 ;;  address         1    wreg     unsigned char 
   848 ;; Auto vars:     Size  Location     Type
   849 ;;  address         1    0[BANK1 ] unsigned char 
   850 ;; Return value:  Size  Location     Type
   851 ;;                  1    wreg      void 
   852 ;; Registers used:
   853 ;;		wreg
   854 ;; Tracked objects:
   855 ;;		On entry : 0/0
   856 ;;		On exit  : 0/0
   857 ;;		Unchanged: 0/0
   858 ;; Data sizes:     COMMON   BANK0   BANK1   BANK3   BANK2
   859 ;;      Params:         0       0       0       0       0
   860 ;;      Locals:         0       0       1       0       0
   861 ;;      Temps:          0       0       0       0       0
   862 ;;      Totals:         0       0       1       0       0
   863 ;;Total ram usage:        1 bytes
   864 ;; Hardware stack levels used: 1
   865 ;; Hardware stack levels required when called: 3
   866 ;; This function calls:
   867 ;;		Nothing
   868 ;; This function is called by:
   869 ;;		_setup
   870 ;; This function uses a non-reentrant model
   871 ;;
   872                           
   873     0787                     _I2C_Slave_Init:	
   874                           ;psect for function _I2C_Slave_Init
   875                           
   876                           
   877                           ;incstack = 0
   878                           ; Regs used in _I2C_Slave_Init: [wreg]
   879                           ;I2C_Slave_Init@address stored from wreg
   880     0787  1683               	bsf	3,5	;RP0=1, select bank1
   881     0788  1303               	bcf	3,6	;RP1=0, select bank1
   882     0789  00A0               	movwf	I2C_Slave_Init@address^(0+128)
   883     078A                     l1440:
   884                           
   885                           ;IIC.c: 90: void I2C_Slave_Init(uint8_t address);IIC.c: 91: {;IIC.c: 92:     SSPADD = ad
      +                          dress;
   886     078A  0820               	movf	I2C_Slave_Init@address^(0+128),w
   887     078B  0093               	movwf	19	;volatile
   888                           
   889                           ;IIC.c: 93:     SSPCON = 0x36;
   890     078C  3036               	movlw	54
   891     078D  1283               	bcf	3,5	;RP0=0, select bank0
   892     078E  1303               	bcf	3,6	;RP1=0, select bank0
   893     078F  0094               	movwf	20	;volatile
   894                           
   895                           ;IIC.c: 94:     SSPSTAT = 0x80;
   896     0790  3080               	movlw	128
   897     0791  1683               	bsf	3,5	;RP0=1, select bank1
   898     0792  1303               	bcf	3,6	;RP1=0, select bank1
   899     0793  0094               	movwf	20	;volatile
   900                           
   901                           ;IIC.c: 95:     SSPCON2 = 0x01;
   902     0794  3001               	movlw	1
   903     0795  0091               	movwf	17	;volatile
   904     0796                     l1442:
   905                           
   906                           ;IIC.c: 96:     TRISCbits.TRISC3 = 1;
   907     0796  1587               	bsf	7,3	;volatile
   908     0797                     l1444:
   909                           
   910                           ;IIC.c: 97:     TRISCbits.TRISC4 = 1;
   911     0797  1607               	bsf	7,4	;volatile
   912     0798                     l1446:
   913                           
   914                           ;IIC.c: 98:     GIE = 1;
   915     0798  178B               	bsf	11,7	;volatile
   916     0799                     l1448:
   917                           
   918                           ;IIC.c: 99:     PEIE = 1;
   919     0799  170B               	bsf	11,6	;volatile
   920     079A                     l1450:
   921                           
   922                           ;IIC.c: 100:     SSPIF = 0;
   923     079A  1283               	bcf	3,5	;RP0=0, select bank0
   924     079B  1303               	bcf	3,6	;RP1=0, select bank0
   925     079C  118C               	bcf	12,3	;volatile
   926     079D                     l1452:
   927                           
   928                           ;IIC.c: 101:     SSPIE = 1;
   929     079D  1683               	bsf	3,5	;RP0=1, select bank1
   930     079E  1303               	bcf	3,6	;RP1=0, select bank1
   931     079F  158C               	bsf	12,3	;volatile
   932     07A0                     l151:
   933     07A0  0008               	return
   934     07A1                     __end_of_I2C_Slave_Init:
   935                           
   936                           	psect	text3
   937     05BA                     __ptext3:	
   938 ;; *************** function _isr *****************
   939 ;; Defined at:
   940 ;;		line 54 in file "main.c"
   941 ;; Parameters:    Size  Location     Type
   942 ;;		None
   943 ;; Auto vars:     Size  Location     Type
   944 ;;		None
   945 ;; Return value:  Size  Location     Type
   946 ;;                  1    wreg      void 
   947 ;; Registers used:
   948 ;;		wreg, status,2, status,0, btemp+1, pclath, cstack
   949 ;; Tracked objects:
   950 ;;		On entry : 0/0
   951 ;;		On exit  : 0/0
   952 ;;		Unchanged: 0/0
   953 ;; Data sizes:     COMMON   BANK0   BANK1   BANK3   BANK2
   954 ;;      Params:         0       0       0       0       0
   955 ;;      Locals:         0       0       0       0       0
   956 ;;      Temps:          0       4       0       0       0
   957 ;;      Totals:         0       4       0       0       0
   958 ;;Total ram usage:        4 bytes
   959 ;; Hardware stack levels used: 1
   960 ;; Hardware stack levels required when called: 2
   961 ;; This function calls:
   962 ;;		___fltol
   963 ;;		_readTemp
   964 ;; This function is called by:
   965 ;;		Interrupt level 1
   966 ;; This function uses a non-reentrant model
   967 ;;
   968                           
   969     05BA                     _isr:	
   970                           ;psect for function _isr
   971                           
   972     05BA                     i1l1986:
   973                           
   974                           ;main.c: 57:     if (PIR1bits.SSPIF){
   975     05BA  1D8C               	btfss	12,3	;volatile
   976     05BB  2DBD               	goto	u242_21
   977     05BC  2DBE               	goto	u242_20
   978     05BD                     u242_21:
   979     05BD  2E26               	goto	i1l71
   980     05BE                     u242_20:
   981     05BE                     i1l1988:
   982                           
   983                           ;main.c: 59:         SSPCONbits.CKP = 0;
   984     05BE  1214               	bcf	20,4	;volatile
   985                           
   986                           ;main.c: 61:         if ((SSPCONbits.SSPOV) || (SSPCONbits.WCOL)){
   987     05BF  1B14               	btfsc	20,6	;volatile
   988     05C0  2DC2               	goto	u243_21
   989     05C1  2DC3               	goto	u243_20
   990     05C2                     u243_21:
   991     05C2  2DC7               	goto	i1l1992
   992     05C3                     u243_20:
   993     05C3                     i1l1990:
   994     05C3  1F94               	btfss	20,7	;volatile
   995     05C4  2DC6               	goto	u244_21
   996     05C5  2DC7               	goto	u244_20
   997     05C6                     u244_21:
   998     05C6  2DCC               	goto	i1l2000
   999     05C7                     u244_20:
  1000     05C7                     i1l1992:
  1001                           
  1002                           ;main.c: 62:             z = SSPBUF;
  1003     05C7  0813               	movf	19,w	;volatile
  1004     05C8  00E0               	movwf	_z
  1005     05C9                     i1l1994:
  1006                           
  1007                           ;main.c: 63:             SSPCONbits.SSPOV = 0;
  1008     05C9  1314               	bcf	20,6	;volatile
  1009     05CA                     i1l1996:
  1010                           
  1011                           ;main.c: 64:             SSPCONbits.WCOL = 0;
  1012     05CA  1394               	bcf	20,7	;volatile
  1013     05CB                     i1l1998:
  1014                           
  1015                           ;main.c: 65:             SSPCONbits.CKP = 1;
  1016     05CB  1614               	bsf	20,4	;volatile
  1017     05CC                     i1l2000:
  1018                           
  1019                           ;main.c: 68:         if(!SSPSTATbits.D_nA && !SSPSTATbits.R_nW) {
  1020     05CC  1683               	bsf	3,5	;RP0=1, select bank1
  1021     05CD  1303               	bcf	3,6	;RP1=0, select bank1
  1022     05CE  1A94               	btfsc	20,5	;volatile
  1023     05CF  2DD1               	goto	u245_21
  1024     05D0  2DD2               	goto	u245_20
  1025     05D1                     u245_21:
  1026     05D1  2DEE               	goto	i1l75
  1027     05D2                     u245_20:
  1028     05D2                     i1l2002:
  1029     05D2  1914               	btfsc	20,2	;volatile
  1030     05D3  2DD5               	goto	u246_21
  1031     05D4  2DD6               	goto	u246_20
  1032     05D5                     u246_21:
  1033     05D5  2DEE               	goto	i1l75
  1034     05D6                     u246_20:
  1035     05D6                     i1l2004:
  1036                           
  1037                           ;main.c: 69:             z = SSPBUF;
  1038     05D6  1283               	bcf	3,5	;RP0=0, select bank0
  1039     05D7  1303               	bcf	3,6	;RP1=0, select bank0
  1040     05D8  0813               	movf	19,w	;volatile
  1041     05D9  00E0               	movwf	_z
  1042     05DA                     i1l2006:
  1043                           
  1044                           ;main.c: 70:             PIR1bits.SSPIF = 0;
  1045     05DA  118C               	bcf	12,3	;volatile
  1046     05DB                     i1l2008:
  1047                           
  1048                           ;main.c: 71:             SSPCONbits.CKP = 1;
  1049     05DB  1614               	bsf	20,4	;volatile
  1050     05DC                     i1l76:	
  1051                           ;main.c: 72:             while(!SSPSTATbits.BF);
  1052                           
  1053     05DC  1683               	bsf	3,5	;RP0=1, select bank1
  1054     05DD  1303               	bcf	3,6	;RP1=0, select bank1
  1055     05DE  1C14               	btfss	20,0	;volatile
  1056     05DF  2DE1               	goto	u247_21
  1057     05E0  2DE2               	goto	u247_20
  1058     05E1                     u247_21:
  1059     05E1  2DDC               	goto	i1l76
  1060     05E2                     u247_20:
  1061     05E2                     i1l2010:
  1062                           
  1063                           ;main.c: 73:             PORTD = SSPBUF;
  1064     05E2  1283               	bcf	3,5	;RP0=0, select bank0
  1065     05E3  1303               	bcf	3,6	;RP1=0, select bank0
  1066     05E4  0813               	movf	19,w	;volatile
  1067     05E5  0088               	movwf	8	;volatile
  1068                           
  1069                           ;main.c: 74:             _delay((unsigned long)((250)*(8000000/4000000.0)));
  1070     05E6  30A5               	movlw	165
  1071     05E7  1283               	bcf	3,5	;RP0=0, select bank0
  1072     05E8  1303               	bcf	3,6	;RP1=0, select bank0
  1073     05E9  00D6               	movwf	??_isr
  1074     05EA                     u252_27:
  1075     05EA  0BD6               	decfsz	??_isr,f
  1076     05EB  2DEA               	goto	u252_27
  1077     05EC  2DED               	nop2
  1078                           
  1079                           ;main.c: 76:         }
  1080     05ED  2E23               	goto	i1l79
  1081     05EE                     i1l75:	
  1082                           ;main.c: 78:         else if(!SSPSTATbits.D_nA && SSPSTATbits.R_nW){
  1083                           
  1084     05EE  1A94               	btfsc	20,5	;volatile
  1085     05EF  2DF1               	goto	u248_21
  1086     05F0  2DF2               	goto	u248_20
  1087     05F1                     u248_21:
  1088     05F1  2E23               	goto	i1l79
  1089     05F2                     u248_20:
  1090     05F2                     i1l2012:
  1091     05F2  1D14               	btfss	20,2	;volatile
  1092     05F3  2DF5               	goto	u249_21
  1093     05F4  2DF6               	goto	u249_20
  1094     05F5                     u249_21:
  1095     05F5  2E23               	goto	i1l79
  1096     05F6                     u249_20:
  1097     05F6                     i1l2014:
  1098                           
  1099                           ;main.c: 79:             z = SSPBUF;
  1100     05F6  1283               	bcf	3,5	;RP0=0, select bank0
  1101     05F7  1303               	bcf	3,6	;RP1=0, select bank0
  1102     05F8  0813               	movf	19,w	;volatile
  1103     05F9  00E0               	movwf	_z
  1104     05FA                     i1l2016:
  1105                           
  1106                           ;main.c: 80:             SSPSTATbits.BF = 0;
  1107     05FA  1683               	bsf	3,5	;RP0=1, select bank1
  1108     05FB  1303               	bcf	3,6	;RP1=0, select bank1
  1109     05FC  1014               	bcf	20,0	;volatile
  1110     05FD                     i1l2018:
  1111                           
  1112                           ;main.c: 81:             readTemp();
  1113     05FD  120A  118A  2509  120A  118A  	fcall	_readTemp
  1114     0602                     i1l2020:
  1115                           
  1116                           ;main.c: 82:             SSPBUF = temperature;
  1117     0602  1283               	bcf	3,5	;RP0=0, select bank0
  1118     0603  1303               	bcf	3,6	;RP1=0, select bank0
  1119     0604  085D               	movf	_temperature+3,w
  1120     0605  00F3               	movwf	___fltol@f1+3
  1121     0606  085C               	movf	_temperature+2,w
  1122     0607  00F2               	movwf	___fltol@f1+2
  1123     0608  085B               	movf	_temperature+1,w
  1124     0609  00F1               	movwf	___fltol@f1+1
  1125     060A  085A               	movf	_temperature,w
  1126     060B  00F0               	movwf	___fltol@f1
  1127     060C  120A  118A  2634  120A  118A  	fcall	___fltol
  1128     0611  0870               	movf	?___fltol,w
  1129     0612  1283               	bcf	3,5	;RP0=0, select bank0
  1130     0613  1303               	bcf	3,6	;RP1=0, select bank0
  1131     0614  0093               	movwf	19	;volatile
  1132     0615                     i1l2022:
  1133                           
  1134                           ;main.c: 83:             SSPCONbits.CKP = 1;
  1135     0615  1614               	bsf	20,4	;volatile
  1136     0616                     i1l2024:
  1137                           
  1138                           ;main.c: 84:             _delay((unsigned long)((250)*(8000000/4000000.0)));
  1139     0616  30A5               	movlw	165
  1140     0617  1283               	bcf	3,5	;RP0=0, select bank0
  1141     0618  1303               	bcf	3,6	;RP1=0, select bank0
  1142     0619  00D6               	movwf	??_isr
  1143     061A                     u253_27:
  1144     061A  0BD6               	decfsz	??_isr,f
  1145     061B  2E1A               	goto	u253_27
  1146     061C  2E1D               	nop2
  1147     061D                     i1l81:	
  1148                           ;main.c: 85:             while(SSPSTATbits.BF);
  1149                           
  1150     061D  1683               	bsf	3,5	;RP0=1, select bank1
  1151     061E  1303               	bcf	3,6	;RP1=0, select bank1
  1152     061F  1814               	btfsc	20,0	;volatile
  1153     0620  2E22               	goto	u250_21
  1154     0621  2E23               	goto	u250_20
  1155     0622                     u250_21:
  1156     0622  2E1D               	goto	i1l81
  1157     0623                     u250_20:
  1158     0623                     i1l79:
  1159                           
  1160                           ;main.c: 87:         PIR1bits.SSPIF = 0;
  1161     0623  1283               	bcf	3,5	;RP0=0, select bank0
  1162     0624  1303               	bcf	3,6	;RP1=0, select bank0
  1163     0625  118C               	bcf	12,3	;volatile
  1164     0626                     i1l71:	
  1165                           ;main.c: 88:     }
  1166                           
  1167                           
  1168                           ;main.c: 90:     if (INTCONbits.RBIF){
  1169     0626  1C0B               	btfss	11,0	;volatile
  1170     0627  2E29               	goto	u251_21
  1171     0628  2E2A               	goto	u251_20
  1172     0629                     u251_21:
  1173     0629  2E2B               	goto	i1l85
  1174     062A                     u251_20:
  1175     062A                     i1l2026:
  1176                           
  1177                           ;main.c: 91:         INTCONbits.RBIF = 0;
  1178     062A  100B               	bcf	11,0	;volatile
  1179     062B                     i1l85:
  1180     062B  0859               	movf	??_isr+3,w
  1181     062C  00FF               	movwf	btemp+1
  1182     062D  0858               	movf	??_isr+2,w
  1183     062E  008A               	movwf	10
  1184     062F  0E57               	swapf	??_isr+1,w
  1185     0630  0083               	movwf	3
  1186     0631  0EFE               	swapf	btemp,f
  1187     0632  0E7E               	swapf	btemp,w
  1188     0633  0009               	retfie
  1189     0634                     __end_of_isr:
  1190                           
  1191                           	psect	intentry
  1192     0004                     __pintentry:	
  1193                           ;incstack = 0
  1194                           ; Regs used in _isr: [wreg+status,2+status,0+btemp+1+pclath+cstack]
  1195                           
  1196     0004                     interrupt_function:
  1197     007E                     saved_w	set	btemp
  1198     0004  00FE               	movwf	btemp
  1199     0005  0E03               	swapf	3,w
  1200     0006  1283               	bcf	3,5	;RP0=0, select bank0
  1201     0007  1303               	bcf	3,6	;RP1=0, select bank0
  1202     0008  00D7               	movwf	??_isr+1
  1203     0009  080A               	movf	10,w
  1204     000A  00D8               	movwf	??_isr+2
  1205     000B  087F               	movf	btemp+1,w
  1206     000C  00D9               	movwf	??_isr+3
  1207     000D  120A  118A  2DBA   	ljmp	_isr
  1208                           
  1209                           	psect	text4
  1210     0509                     __ptext4:	
  1211 ;; *************** function _readTemp *****************
  1212 ;; Defined at:
  1213 ;;		line 154 in file "main.c"
  1214 ;; Parameters:    Size  Location     Type
  1215 ;;		None
  1216 ;; Auto vars:     Size  Location     Type
  1217 ;;		None
  1218 ;; Return value:  Size  Location     Type
  1219 ;;                  1    wreg      void 
  1220 ;; Registers used:
  1221 ;;		wreg, status,2, status,0, btemp+1, pclath, cstack
  1222 ;; Tracked objects:
  1223 ;;		On entry : 0/0
  1224 ;;		On exit  : 0/0
  1225 ;;		Unchanged: 0/0
  1226 ;; Data sizes:     COMMON   BANK0   BANK1   BANK3   BANK2
  1227 ;;      Params:         0       0       0       0       0
  1228 ;;      Locals:         0       0       0       0       0
  1229 ;;      Temps:          0       8       0       0       0
  1230 ;;      Totals:         0       8       0       0       0
  1231 ;;Total ram usage:        8 bytes
  1232 ;; Hardware stack levels used: 1
  1233 ;; Hardware stack levels required when called: 1
  1234 ;; This function calls:
  1235 ;;		_DHT11_Read
  1236 ;;		_DHT11_Response
  1237 ;;		_DHT11_Start
  1238 ;;		___fladd
  1239 ;;		___fldiv
  1240 ;;		___xxtofl
  1241 ;; This function is called by:
  1242 ;;		_isr
  1243 ;; This function uses a non-reentrant model
  1244 ;;
  1245                           
  1246     0509                     _readTemp:	
  1247                           ;psect for function _readTemp
  1248                           
  1249     0509                     i1l1904:	
  1250                           ;incstack = 0
  1251                           ; Regs used in _readTemp: [wreg+status,2+status,0+btemp+1+pclath+cstack]
  1252                           
  1253                           
  1254                           ;main.c: 155:     _delay((unsigned long)((800)*(8000000/4000.0)));
  1255     0509  3009               	movlw	9
  1256     050A  1283               	bcf	3,5	;RP0=0, select bank0
  1257     050B  1303               	bcf	3,6	;RP1=0, select bank0
  1258     050C  00D0               	movwf	??_readTemp+2
  1259     050D  301E               	movlw	30
  1260     050E  00CF               	movwf	??_readTemp+1
  1261     050F  30E3               	movlw	227
  1262     0510  00CE               	movwf	??_readTemp
  1263     0511                     u254_27:
  1264     0511  0BCE               	decfsz	??_readTemp,f
  1265     0512  2D11               	goto	u254_27
  1266     0513  0BCF               	decfsz	??_readTemp+1,f
  1267     0514  2D11               	goto	u254_27
  1268     0515  0BD0               	decfsz	??_readTemp+2,f
  1269     0516  2D11               	goto	u254_27
  1270     0517  2D18               	nop2
  1271     0518                     i1l1906:
  1272                           
  1273                           ;main.c: 156:     DHT11_Start();
  1274     0518  120A  118A  276C  120A  118A  	fcall	_DHT11_Start
  1275     051D                     i1l1908:
  1276                           
  1277                           ;main.c: 157:     check = DHT11_Response();
  1278     051D  120A  118A  26FD  120A  118A  	fcall	_DHT11_Response
  1279     0522  0870               	movf	?_DHT11_Response,w
  1280     0523  1283               	bcf	3,5	;RP0=0, select bank0
  1281     0524  1303               	bcf	3,6	;RP1=0, select bank0
  1282     0525  00E1               	movwf	_check
  1283     0526                     i1l1910:
  1284                           
  1285                           ;main.c: 159:     if(check == 1){
  1286     0526  0361               	decf	_check,w
  1287     0527  1D03               	btfss	3,2
  1288     0528  2D2A               	goto	u231_21
  1289     0529  2D2B               	goto	u231_20
  1290     052A                     u231_21:
  1291     052A  2D59               	goto	i1l1916
  1292     052B                     u231_20:
  1293     052B                     i1l1912:
  1294                           
  1295                           ;main.c: 160:         humedad = DHT11_Read();
  1296     052B  120A  118A  26AA  120A  118A  	fcall	_DHT11_Read
  1297     0530  0870               	movf	?_DHT11_Read,w
  1298     0531  1283               	bcf	3,5	;RP0=0, select bank0
  1299     0532  1303               	bcf	3,6	;RP1=0, select bank0
  1300     0533  00E6               	movwf	_humedad
  1301                           
  1302                           ;main.c: 161:         humedad_dec = DHT11_Read();
  1303     0534  120A  118A  26AA  120A  118A  	fcall	_DHT11_Read
  1304     0539  0870               	movf	?_DHT11_Read,w
  1305     053A  1283               	bcf	3,5	;RP0=0, select bank0
  1306     053B  1303               	bcf	3,6	;RP1=0, select bank0
  1307     053C  00E5               	movwf	_humedad_dec
  1308                           
  1309                           ;main.c: 162:         temperatura = DHT11_Read();
  1310     053D  120A  118A  26AA  120A  118A  	fcall	_DHT11_Read
  1311     0542  0870               	movf	?_DHT11_Read,w
  1312     0543  1283               	bcf	3,5	;RP0=0, select bank0
  1313     0544  1303               	bcf	3,6	;RP1=0, select bank0
  1314     0545  00E4               	movwf	_temperatura
  1315                           
  1316                           ;main.c: 163:         temperatura_dec = DHT11_Read();
  1317     0546  120A  118A  26AA  120A  118A  	fcall	_DHT11_Read
  1318     054B  0870               	movf	?_DHT11_Read,w
  1319     054C  1283               	bcf	3,5	;RP0=0, select bank0
  1320     054D  1303               	bcf	3,6	;RP1=0, select bank0
  1321     054E  00E3               	movwf	_temperatura_dec
  1322                           
  1323                           ;main.c: 164:         paridad = DHT11_Read();
  1324     054F  120A  118A  26AA  120A  118A  	fcall	_DHT11_Read
  1325     0554  0870               	movf	?_DHT11_Read,w
  1326     0555  1283               	bcf	3,5	;RP0=0, select bank0
  1327     0556  1303               	bcf	3,6	;RP1=0, select bank0
  1328     0557  00E2               	movwf	_paridad
  1329     0558                     i1l1914:
  1330                           
  1331                           ;main.c: 165:         T1CONbits.TMR1ON = 0;
  1332     0558  1010               	bcf	16,0	;volatile
  1333     0559                     i1l1916:
  1334                           
  1335                           ;main.c: 170:     temperature = ((float)temperatura+((float)temperatura_dec/10));
  1336     0559  3041               	movlw	65
  1337     055A  00A3               	movwf	___fldiv@a+3
  1338     055B  3020               	movlw	32
  1339     055C  00A2               	movwf	___fldiv@a+2
  1340     055D  3000               	movlw	0
  1341     055E  00A1               	movwf	___fldiv@a+1
  1342     055F  3000               	movlw	0
  1343     0560  00A0               	movwf	___fldiv@a
  1344     0561  0863               	movf	_temperatura_dec,w
  1345     0562  00CE               	movwf	??_readTemp
  1346     0563  01CF               	clrf	??_readTemp+1
  1347     0564  01D0               	clrf	??_readTemp+2
  1348     0565  01D1               	clrf	??_readTemp+3
  1349     0566  0851               	movf	??_readTemp+3,w
  1350     0567  00F3               	movwf	___xxtofl@val+3
  1351     0568  0850               	movf	??_readTemp+2,w
  1352     0569  00F2               	movwf	___xxtofl@val+2
  1353     056A  084F               	movf	??_readTemp+1,w
  1354     056B  00F1               	movwf	___xxtofl@val+1
  1355     056C  084E               	movf	??_readTemp,w
  1356     056D  00F0               	movwf	___xxtofl@val
  1357     056E  3000               	movlw	0
  1358     056F  120A  118A  2451  120A  118A  	fcall	___xxtofl
  1359     0574  0873               	movf	?___xxtofl+3,w
  1360     0575  1283               	bcf	3,5	;RP0=0, select bank0
  1361     0576  1303               	bcf	3,6	;RP1=0, select bank0
  1362     0577  00A7               	movwf	___fldiv@b+3
  1363     0578  0872               	movf	?___xxtofl+2,w
  1364     0579  00A6               	movwf	___fldiv@b+2
  1365     057A  0871               	movf	?___xxtofl+1,w
  1366     057B  00A5               	movwf	___fldiv@b+1
  1367     057C  0870               	movf	?___xxtofl,w
  1368     057D  00A4               	movwf	___fldiv@b
  1369     057E  120A  118A  227E  120A  118A  	fcall	___fldiv
  1370     0583  1283               	bcf	3,5	;RP0=0, select bank0
  1371     0584  1303               	bcf	3,6	;RP1=0, select bank0
  1372     0585  0823               	movf	?___fldiv+3,w
  1373     0586  00BD               	movwf	___fladd@b+3
  1374     0587  0822               	movf	?___fldiv+2,w
  1375     0588  00BC               	movwf	___fladd@b+2
  1376     0589  0821               	movf	?___fldiv+1,w
  1377     058A  00BB               	movwf	___fladd@b+1
  1378     058B  0820               	movf	?___fldiv,w
  1379     058C  00BA               	movwf	___fladd@b
  1380     058D  0864               	movf	_temperatura,w
  1381     058E  00D2               	movwf	??_readTemp+4
  1382     058F  01D3               	clrf	??_readTemp+5
  1383     0590  01D4               	clrf	??_readTemp+6
  1384     0591  01D5               	clrf	??_readTemp+7
  1385     0592  0855               	movf	??_readTemp+7,w
  1386     0593  00F3               	movwf	___xxtofl@val+3
  1387     0594  0854               	movf	??_readTemp+6,w
  1388     0595  00F2               	movwf	___xxtofl@val+2
  1389     0596  0853               	movf	??_readTemp+5,w
  1390     0597  00F1               	movwf	___xxtofl@val+1
  1391     0598  0852               	movf	??_readTemp+4,w
  1392     0599  00F0               	movwf	___xxtofl@val
  1393     059A  3000               	movlw	0
  1394     059B  120A  118A  2451  120A  118A  	fcall	___xxtofl
  1395     05A0  0873               	movf	?___xxtofl+3,w
  1396     05A1  1283               	bcf	3,5	;RP0=0, select bank0
  1397     05A2  1303               	bcf	3,6	;RP1=0, select bank0
  1398     05A3  00C1               	movwf	___fladd@a+3
  1399     05A4  0872               	movf	?___xxtofl+2,w
  1400     05A5  00C0               	movwf	___fladd@a+2
  1401     05A6  0871               	movf	?___xxtofl+1,w
  1402     05A7  00BF               	movwf	___fladd@a+1
  1403     05A8  0870               	movf	?___xxtofl,w
  1404     05A9  00BE               	movwf	___fladd@a
  1405     05AA  120A  118A  2026  120A  118A  	fcall	___fladd
  1406     05AF  1283               	bcf	3,5	;RP0=0, select bank0
  1407     05B0  1303               	bcf	3,6	;RP1=0, select bank0
  1408     05B1  083D               	movf	?___fladd+3,w
  1409     05B2  00DD               	movwf	_temperature+3
  1410     05B3  083C               	movf	?___fladd+2,w
  1411     05B4  00DC               	movwf	_temperature+2
  1412     05B5  083B               	movf	?___fladd+1,w
  1413     05B6  00DB               	movwf	_temperature+1
  1414     05B7  083A               	movf	?___fladd,w
  1415     05B8  00DA               	movwf	_temperature
  1416     05B9                     i1l100:
  1417     05B9  0008               	return
  1418     05BA                     __end_of_readTemp:
  1419                           
  1420                           	psect	text5
  1421     0451                     __ptext5:	
  1422 ;; *************** function ___xxtofl *****************
  1423 ;; Defined at:
  1424 ;;		line 10 in file "C:\Program Files\Microchip\xc8\v2.40\pic\sources\c90\common\xxtofl.c"
  1425 ;; Parameters:    Size  Location     Type
  1426 ;;  sign            1    wreg     unsigned char 
  1427 ;;  val             4    0[COMMON] long 
  1428 ;; Auto vars:     Size  Location     Type
  1429 ;;  sign            1    8[COMMON] unsigned char 
  1430 ;;  arg             4   10[COMMON] unsigned long 
  1431 ;;  exp             1    9[COMMON] unsigned char 
  1432 ;; Return value:  Size  Location     Type
  1433 ;;                  4    0[COMMON] unsigned char 
  1434 ;; Registers used:
  1435 ;;		wreg, status,2, status,0
  1436 ;; Tracked objects:
  1437 ;;		On entry : 0/0
  1438 ;;		On exit  : 0/0
  1439 ;;		Unchanged: 0/0
  1440 ;; Data sizes:     COMMON   BANK0   BANK1   BANK3   BANK2
  1441 ;;      Params:         4       0       0       0       0
  1442 ;;      Locals:         6       0       0       0       0
  1443 ;;      Temps:          4       0       0       0       0
  1444 ;;      Totals:        14       0       0       0       0
  1445 ;;Total ram usage:       14 bytes
  1446 ;; Hardware stack levels used: 1
  1447 ;; This function calls:
  1448 ;;		Nothing
  1449 ;; This function is called by:
  1450 ;;		_readTemp
  1451 ;; This function uses a non-reentrant model
  1452 ;;
  1453                           
  1454     0451                     ___xxtofl:	
  1455                           ;psect for function ___xxtofl
  1456                           
  1457                           
  1458                           ;incstack = 0
  1459                           ; Regs used in ___xxtofl: [wreg+status,2+status,0]
  1460                           ;___xxtofl@sign stored from wreg
  1461     0451  00F8               	movwf	___xxtofl@sign
  1462     0452                     i1l1860:
  1463     0452  0878               	movf	___xxtofl@sign,w
  1464     0453  1903               	btfsc	3,2
  1465     0454  2C56               	goto	u217_21
  1466     0455  2C57               	goto	u217_20
  1467     0456                     u217_21:
  1468     0456  2C6B               	goto	i1l1866
  1469     0457                     u217_20:
  1470     0457                     i1l1862:
  1471     0457  1FF3               	btfss	___xxtofl@val+3,7
  1472     0458  2C5A               	goto	u218_21
  1473     0459  2C5B               	goto	u218_20
  1474     045A                     u218_21:
  1475     045A  2C6B               	goto	i1l1866
  1476     045B                     u218_20:
  1477     045B                     i1l1864:
  1478     045B  0970               	comf	___xxtofl@val,w
  1479     045C  00FA               	movwf	___xxtofl@arg
  1480     045D  0971               	comf	___xxtofl@val+1,w
  1481     045E  00FB               	movwf	___xxtofl@arg+1
  1482     045F  0972               	comf	___xxtofl@val+2,w
  1483     0460  00FC               	movwf	___xxtofl@arg+2
  1484     0461  0973               	comf	___xxtofl@val+3,w
  1485     0462  00FD               	movwf	___xxtofl@arg+3
  1486     0463  0AFA               	incf	___xxtofl@arg,f
  1487     0464  1903               	skipnz
  1488     0465  0AFB               	incf	___xxtofl@arg+1,f
  1489     0466  1903               	skipnz
  1490     0467  0AFC               	incf	___xxtofl@arg+2,f
  1491     0468  1903               	skipnz
  1492     0469  0AFD               	incf	___xxtofl@arg+3,f
  1493     046A  2C73               	goto	i1l723
  1494     046B                     i1l1866:
  1495     046B  0873               	movf	___xxtofl@val+3,w
  1496     046C  00FD               	movwf	___xxtofl@arg+3
  1497     046D  0872               	movf	___xxtofl@val+2,w
  1498     046E  00FC               	movwf	___xxtofl@arg+2
  1499     046F  0871               	movf	___xxtofl@val+1,w
  1500     0470  00FB               	movwf	___xxtofl@arg+1
  1501     0471  0870               	movf	___xxtofl@val,w
  1502     0472  00FA               	movwf	___xxtofl@arg
  1503     0473                     i1l723:
  1504     0473  0873               	movf	___xxtofl@val+3,w
  1505     0474  0472               	iorwf	___xxtofl@val+2,w
  1506     0475  0471               	iorwf	___xxtofl@val+1,w
  1507     0476  0470               	iorwf	___xxtofl@val,w
  1508     0477  1D03               	skipz
  1509     0478  2C7A               	goto	u219_21
  1510     0479  2C7B               	goto	u219_20
  1511     047A                     u219_21:
  1512     047A  2C84               	goto	i1l1872
  1513     047B                     u219_20:
  1514     047B                     i1l1868:
  1515     047B  3000               	movlw	0
  1516     047C  00F3               	movwf	?___xxtofl+3
  1517     047D  3000               	movlw	0
  1518     047E  00F2               	movwf	?___xxtofl+2
  1519     047F  3000               	movlw	0
  1520     0480  00F1               	movwf	?___xxtofl+1
  1521     0481  3000               	movlw	0
  1522     0482  00F0               	movwf	?___xxtofl
  1523     0483  2D08               	goto	i1l725
  1524     0484                     i1l1872:
  1525     0484  3096               	movlw	150
  1526     0485  00F9               	movwf	___xxtofl@exp
  1527     0486  2C94               	goto	i1l1876
  1528     0487                     i1l1874:
  1529     0487  3001               	movlw	1
  1530     0488  00F4               	movwf	??___xxtofl
  1531     0489  0874               	movf	??___xxtofl,w
  1532     048A  07F9               	addwf	___xxtofl@exp,f
  1533     048B  3001               	movlw	1
  1534     048C                     u220_25:
  1535     048C  1003               	clrc
  1536     048D  0CFD               	rrf	___xxtofl@arg+3,f
  1537     048E  0CFC               	rrf	___xxtofl@arg+2,f
  1538     048F  0CFB               	rrf	___xxtofl@arg+1,f
  1539     0490  0CFA               	rrf	___xxtofl@arg,f
  1540     0491  3EFF               	addlw	-1
  1541     0492  1D03               	skipz
  1542     0493  2C8C               	goto	u220_25
  1543     0494                     i1l1876:
  1544     0494  30FE               	movlw	254
  1545     0495  057D               	andwf	___xxtofl@arg+3,w
  1546     0496  1D03               	btfss	3,2
  1547     0497  2C99               	goto	u221_21
  1548     0498  2C9A               	goto	u221_20
  1549     0499                     u221_21:
  1550     0499  2C87               	goto	i1l1874
  1551     049A                     u221_20:
  1552     049A  2CB6               	goto	i1l729
  1553     049B                     i1l1878:
  1554     049B  3001               	movlw	1
  1555     049C  00F4               	movwf	??___xxtofl
  1556     049D  0874               	movf	??___xxtofl,w
  1557     049E  07F9               	addwf	___xxtofl@exp,f
  1558     049F                     i1l1880:
  1559     049F  3001               	movlw	1
  1560     04A0  07FA               	addwf	___xxtofl@arg,f
  1561     04A1  3000               	movlw	0
  1562     04A2  1803               	skipnc
  1563     04A3  3001               	movlw	1
  1564     04A4  07FB               	addwf	___xxtofl@arg+1,f
  1565     04A5  3000               	movlw	0
  1566     04A6  1803               	skipnc
  1567     04A7  3001               	movlw	1
  1568     04A8  07FC               	addwf	___xxtofl@arg+2,f
  1569     04A9  3000               	movlw	0
  1570     04AA  1803               	skipnc
  1571     04AB  3001               	movlw	1
  1572     04AC  07FD               	addwf	___xxtofl@arg+3,f
  1573     04AD                     i1l1882:
  1574     04AD  3001               	movlw	1
  1575     04AE                     u222_25:
  1576     04AE  1003               	clrc
  1577     04AF  0CFD               	rrf	___xxtofl@arg+3,f
  1578     04B0  0CFC               	rrf	___xxtofl@arg+2,f
  1579     04B1  0CFB               	rrf	___xxtofl@arg+1,f
  1580     04B2  0CFA               	rrf	___xxtofl@arg,f
  1581     04B3  3EFF               	addlw	-1
  1582     04B4  1D03               	skipz
  1583     04B5  2CAE               	goto	u222_25
  1584     04B6                     i1l729:
  1585     04B6  30FF               	movlw	255
  1586     04B7  057D               	andwf	___xxtofl@arg+3,w
  1587     04B8  1D03               	btfss	3,2
  1588     04B9  2CBB               	goto	u223_21
  1589     04BA  2CBC               	goto	u223_20
  1590     04BB                     u223_21:
  1591     04BB  2C9B               	goto	i1l1878
  1592     04BC                     u223_20:
  1593     04BC  2CC8               	goto	i1l1886
  1594     04BD                     i1l1884:
  1595     04BD  3001               	movlw	1
  1596     04BE  02F9               	subwf	___xxtofl@exp,f
  1597     04BF  3001               	movlw	1
  1598     04C0  00F4               	movwf	??___xxtofl
  1599     04C1                     u224_25:
  1600     04C1  1003               	clrc
  1601     04C2  0DFA               	rlf	___xxtofl@arg,f
  1602     04C3  0DFB               	rlf	___xxtofl@arg+1,f
  1603     04C4  0DFC               	rlf	___xxtofl@arg+2,f
  1604     04C5  0DFD               	rlf	___xxtofl@arg+3,f
  1605     04C6  0BF4               	decfsz	??___xxtofl,f
  1606     04C7  2CC1               	goto	u224_25
  1607     04C8                     i1l1886:
  1608     04C8  1BFC               	btfsc	___xxtofl@arg+2,7
  1609     04C9  2CCB               	goto	u225_21
  1610     04CA  2CCC               	goto	u225_20
  1611     04CB                     u225_21:
  1612     04CB  2CD2               	goto	i1l736
  1613     04CC                     u225_20:
  1614     04CC                     i1l1888:
  1615     04CC  3002               	movlw	2
  1616     04CD  0279               	subwf	___xxtofl@exp,w
  1617     04CE  1803               	skipnc
  1618     04CF  2CD1               	goto	u226_21
  1619     04D0  2CD2               	goto	u226_20
  1620     04D1                     u226_21:
  1621     04D1  2CBD               	goto	i1l1884
  1622     04D2                     u226_20:
  1623     04D2                     i1l736:
  1624     04D2  1879               	btfsc	___xxtofl@exp,0
  1625     04D3  2CD5               	goto	u227_21
  1626     04D4  2CD6               	goto	u227_20
  1627     04D5                     u227_21:
  1628     04D5  2CDE               	goto	i1l737
  1629     04D6                     u227_20:
  1630     04D6                     i1l1890:
  1631     04D6  30FF               	movlw	255
  1632     04D7  05FA               	andwf	___xxtofl@arg,f
  1633     04D8  30FF               	movlw	255
  1634     04D9  05FB               	andwf	___xxtofl@arg+1,f
  1635     04DA  307F               	movlw	127
  1636     04DB  05FC               	andwf	___xxtofl@arg+2,f
  1637     04DC  30FF               	movlw	255
  1638     04DD  05FD               	andwf	___xxtofl@arg+3,f
  1639     04DE                     i1l737:
  1640     04DE  1003               	clrc
  1641     04DF  0CF9               	rrf	___xxtofl@exp,f
  1642     04E0                     i1l1892:
  1643     04E0  0879               	movf	___xxtofl@exp,w
  1644     04E1  00F4               	movwf	??___xxtofl
  1645     04E2  01F5               	clrf	??___xxtofl+1
  1646     04E3  01F6               	clrf	??___xxtofl+2
  1647     04E4  01F7               	clrf	??___xxtofl+3
  1648     04E5  3018               	movlw	24
  1649     04E6                     u228_25:
  1650     04E6  1003               	clrc
  1651     04E7  0DF4               	rlf	??___xxtofl,f
  1652     04E8  0DF5               	rlf	??___xxtofl+1,f
  1653     04E9  0DF6               	rlf	??___xxtofl+2,f
  1654     04EA  0DF7               	rlf	??___xxtofl+3,f
  1655     04EB                     u228_20:
  1656     04EB  3EFF               	addlw	-1
  1657     04EC  1D03               	skipz
  1658     04ED  2CE6               	goto	u228_25
  1659     04EE  0874               	movf	??___xxtofl,w
  1660     04EF  04FA               	iorwf	___xxtofl@arg,f
  1661     04F0  0875               	movf	??___xxtofl+1,w
  1662     04F1  04FB               	iorwf	___xxtofl@arg+1,f
  1663     04F2  0876               	movf	??___xxtofl+2,w
  1664     04F3  04FC               	iorwf	___xxtofl@arg+2,f
  1665     04F4  0877               	movf	??___xxtofl+3,w
  1666     04F5  04FD               	iorwf	___xxtofl@arg+3,f
  1667     04F6                     i1l1894:
  1668     04F6  0878               	movf	___xxtofl@sign,w
  1669     04F7  1903               	btfsc	3,2
  1670     04F8  2CFA               	goto	u229_21
  1671     04F9  2CFB               	goto	u229_20
  1672     04FA                     u229_21:
  1673     04FA  2D00               	goto	i1l1900
  1674     04FB                     u229_20:
  1675     04FB                     i1l1896:
  1676     04FB  1FF3               	btfss	___xxtofl@val+3,7
  1677     04FC  2CFE               	goto	u230_21
  1678     04FD  2CFF               	goto	u230_20
  1679     04FE                     u230_21:
  1680     04FE  2D00               	goto	i1l1900
  1681     04FF                     u230_20:
  1682     04FF                     i1l1898:
  1683     04FF  17FD               	bsf	___xxtofl@arg+3,7
  1684     0500                     i1l1900:
  1685     0500  087D               	movf	___xxtofl@arg+3,w
  1686     0501  00F3               	movwf	?___xxtofl+3
  1687     0502  087C               	movf	___xxtofl@arg+2,w
  1688     0503  00F2               	movwf	?___xxtofl+2
  1689     0504  087B               	movf	___xxtofl@arg+1,w
  1690     0505  00F1               	movwf	?___xxtofl+1
  1691     0506  087A               	movf	___xxtofl@arg,w
  1692     0507  00F0               	movwf	?___xxtofl
  1693     0508                     i1l725:
  1694     0508  0008               	return
  1695     0509                     __end_of___xxtofl:
  1696                           
  1697                           	psect	text6
  1698     027E                     __ptext6:	
  1699 ;; *************** function ___fldiv *****************
  1700 ;; Defined at:
  1701 ;;		line 8 in file "C:\Program Files\Microchip\xc8\v2.40\pic\sources\c90\common\sprcdiv.c"
  1702 ;; Parameters:    Size  Location     Type
  1703 ;;  a               4    0[BANK0 ] unsigned char 
  1704 ;;  b               4    4[BANK0 ] unsigned char 
  1705 ;; Auto vars:     Size  Location     Type
  1706 ;;  grs             4   20[BANK0 ] unsigned long 
  1707 ;;  rem             4   13[BANK0 ] unsigned long 
  1708 ;;  new_exp         2   18[BANK0 ] int 
  1709 ;;  aexp            1   25[BANK0 ] unsigned char 
  1710 ;;  bexp            1   24[BANK0 ] unsigned char 
  1711 ;;  sign            1   17[BANK0 ] unsigned char 
  1712 ;; Return value:  Size  Location     Type
  1713 ;;                  4    0[BANK0 ] unsigned char 
  1714 ;; Registers used:
  1715 ;;		wreg, status,2, status,0, btemp+1
  1716 ;; Tracked objects:
  1717 ;;		On entry : 0/0
  1718 ;;		On exit  : 0/0
  1719 ;;		Unchanged: 0/0
  1720 ;; Data sizes:     COMMON   BANK0   BANK1   BANK3   BANK2
  1721 ;;      Params:         0       8       0       0       0
  1722 ;;      Locals:         0      13       0       0       0
  1723 ;;      Temps:          0       5       0       0       0
  1724 ;;      Totals:         0      26       0       0       0
  1725 ;;Total ram usage:       26 bytes
  1726 ;; Hardware stack levels used: 1
  1727 ;; This function calls:
  1728 ;;		Nothing
  1729 ;; This function is called by:
  1730 ;;		_readTemp
  1731 ;; This function uses a non-reentrant model
  1732 ;;
  1733                           
  1734     027E                     ___fldiv:	
  1735                           ;psect for function ___fldiv
  1736                           
  1737     027E                     i1l1718:	
  1738                           ;incstack = 0
  1739                           ; Regs used in ___fldiv: [wreg+status,2+status,0+btemp+1]
  1740                           
  1741     027E  1283               	bcf	3,5	;RP0=0, select bank0
  1742     027F  1303               	bcf	3,6	;RP1=0, select bank0
  1743     0280  0827               	movf	___fldiv@b+3,w
  1744     0281  3980               	andlw	128
  1745     0282  00B1               	movwf	___fldiv@sign
  1746     0283                     i1l1720:
  1747     0283  0827               	movf	___fldiv@b+3,w
  1748     0284  00A8               	movwf	??___fldiv
  1749     0285  0728               	addwf	??___fldiv,w
  1750     0286  00B8               	movwf	___fldiv@bexp
  1751     0287                     i1l1722:
  1752     0287  1FA6               	btfss	___fldiv@b+2,7
  1753     0288  2A8A               	goto	u188_21
  1754     0289  2A8B               	goto	u188_20
  1755     028A                     u188_21:
  1756     028A  2A8C               	goto	i1l1726
  1757     028B                     u188_20:
  1758     028B                     i1l1724:
  1759     028B  1438               	bsf	___fldiv@bexp,0
  1760     028C                     i1l1726:
  1761     028C  0838               	movf	___fldiv@bexp,w
  1762     028D  1903               	btfsc	3,2
  1763     028E  2A90               	goto	u189_21
  1764     028F  2A91               	goto	u189_20
  1765     0290                     u189_21:
  1766     0290  2AA1               	goto	i1l1736
  1767     0291                     u189_20:
  1768     0291                     i1l1728:
  1769     0291  0A38               	incf	___fldiv@bexp,w
  1770     0292  1D03               	btfss	3,2
  1771     0293  2A95               	goto	u190_21
  1772     0294  2A96               	goto	u190_20
  1773     0295                     u190_21:
  1774     0295  2A9E               	goto	i1l1732
  1775     0296                     u190_20:
  1776     0296                     i1l1730:
  1777     0296  3000               	movlw	0
  1778     0297  00A7               	movwf	___fldiv@b+3
  1779     0298  3000               	movlw	0
  1780     0299  00A6               	movwf	___fldiv@b+2
  1781     029A  3000               	movlw	0
  1782     029B  00A5               	movwf	___fldiv@b+1
  1783     029C  3000               	movlw	0
  1784     029D  00A4               	movwf	___fldiv@b
  1785     029E                     i1l1732:
  1786     029E  17A6               	bsf	___fldiv@b+2,7
  1787     029F                     i1l1734:
  1788     029F  01A7               	clrf	___fldiv@b+3
  1789     02A0  2AA9               	goto	i1l1738
  1790     02A1                     i1l1736:
  1791     02A1  3000               	movlw	0
  1792     02A2  00A7               	movwf	___fldiv@b+3
  1793     02A3  3000               	movlw	0
  1794     02A4  00A6               	movwf	___fldiv@b+2
  1795     02A5  3000               	movlw	0
  1796     02A6  00A5               	movwf	___fldiv@b+1
  1797     02A7  3000               	movlw	0
  1798     02A8  00A4               	movwf	___fldiv@b
  1799     02A9                     i1l1738:
  1800     02A9  0823               	movf	___fldiv@a+3,w
  1801     02AA  3980               	andlw	128
  1802     02AB  00A8               	movwf	??___fldiv
  1803     02AC  0828               	movf	??___fldiv,w
  1804     02AD  06B1               	xorwf	___fldiv@sign,f
  1805     02AE                     i1l1740:
  1806     02AE  0823               	movf	___fldiv@a+3,w
  1807     02AF  00A8               	movwf	??___fldiv
  1808     02B0  0728               	addwf	??___fldiv,w
  1809     02B1  00B9               	movwf	___fldiv@aexp
  1810     02B2                     i1l1742:
  1811     02B2  1FA2               	btfss	___fldiv@a+2,7
  1812     02B3  2AB5               	goto	u191_21
  1813     02B4  2AB6               	goto	u191_20
  1814     02B5                     u191_21:
  1815     02B5  2AB7               	goto	i1l1746
  1816     02B6                     u191_20:
  1817     02B6                     i1l1744:
  1818     02B6  1439               	bsf	___fldiv@aexp,0
  1819     02B7                     i1l1746:
  1820     02B7  0839               	movf	___fldiv@aexp,w
  1821     02B8  1903               	btfsc	3,2
  1822     02B9  2ABB               	goto	u192_21
  1823     02BA  2ABC               	goto	u192_20
  1824     02BB                     u192_21:
  1825     02BB  2ACC               	goto	i1l1756
  1826     02BC                     u192_20:
  1827     02BC                     i1l1748:
  1828     02BC  0A39               	incf	___fldiv@aexp,w
  1829     02BD  1D03               	btfss	3,2
  1830     02BE  2AC0               	goto	u193_21
  1831     02BF  2AC1               	goto	u193_20
  1832     02C0                     u193_21:
  1833     02C0  2AC9               	goto	i1l1752
  1834     02C1                     u193_20:
  1835     02C1                     i1l1750:
  1836     02C1  3000               	movlw	0
  1837     02C2  00A3               	movwf	___fldiv@a+3
  1838     02C3  3000               	movlw	0
  1839     02C4  00A2               	movwf	___fldiv@a+2
  1840     02C5  3000               	movlw	0
  1841     02C6  00A1               	movwf	___fldiv@a+1
  1842     02C7  3000               	movlw	0
  1843     02C8  00A0               	movwf	___fldiv@a
  1844     02C9                     i1l1752:
  1845     02C9  17A2               	bsf	___fldiv@a+2,7
  1846     02CA                     i1l1754:
  1847     02CA  01A3               	clrf	___fldiv@a+3
  1848     02CB  2AD4               	goto	i1l639
  1849     02CC                     i1l1756:
  1850     02CC  3000               	movlw	0
  1851     02CD  00A3               	movwf	___fldiv@a+3
  1852     02CE  3000               	movlw	0
  1853     02CF  00A2               	movwf	___fldiv@a+2
  1854     02D0  3000               	movlw	0
  1855     02D1  00A1               	movwf	___fldiv@a+1
  1856     02D2  3000               	movlw	0
  1857     02D3  00A0               	movwf	___fldiv@a
  1858     02D4                     i1l639:
  1859     02D4  0823               	movf	___fldiv@a+3,w
  1860     02D5  0422               	iorwf	___fldiv@a+2,w
  1861     02D6  0421               	iorwf	___fldiv@a+1,w
  1862     02D7  0420               	iorwf	___fldiv@a,w
  1863     02D8  1D03               	skipz
  1864     02D9  2ADB               	goto	u194_21
  1865     02DA  2ADC               	goto	u194_20
  1866     02DB                     u194_21:
  1867     02DB  2AF5               	goto	i1l1766
  1868     02DC                     u194_20:
  1869     02DC                     i1l1758:
  1870     02DC  3000               	movlw	0
  1871     02DD  00A7               	movwf	___fldiv@b+3
  1872     02DE  3000               	movlw	0
  1873     02DF  00A6               	movwf	___fldiv@b+2
  1874     02E0  3000               	movlw	0
  1875     02E1  00A5               	movwf	___fldiv@b+1
  1876     02E2  3000               	movlw	0
  1877     02E3  00A4               	movwf	___fldiv@b
  1878     02E4  3080               	movlw	128
  1879     02E5  04A6               	iorwf	___fldiv@b+2,f
  1880     02E6  307F               	movlw	127
  1881     02E7  04A7               	iorwf	___fldiv@b+3,f
  1882     02E8                     i1l1760:
  1883     02E8  0831               	movf	___fldiv@sign,w
  1884     02E9  00A8               	movwf	??___fldiv
  1885     02EA  0828               	movf	??___fldiv,w
  1886     02EB  04A7               	iorwf	___fldiv@b+3,f
  1887     02EC                     i1l1762:
  1888     02EC  0827               	movf	___fldiv@b+3,w
  1889     02ED  00A3               	movwf	?___fldiv+3
  1890     02EE  0826               	movf	___fldiv@b+2,w
  1891     02EF  00A2               	movwf	?___fldiv+2
  1892     02F0  0825               	movf	___fldiv@b+1,w
  1893     02F1  00A1               	movwf	?___fldiv+1
  1894     02F2  0824               	movf	___fldiv@b,w
  1895     02F3  00A0               	movwf	?___fldiv
  1896     02F4  2C50               	goto	i1l641
  1897     02F5                     i1l1766:
  1898     02F5  0838               	movf	___fldiv@bexp,w
  1899     02F6  1D03               	btfss	3,2
  1900     02F7  2AF9               	goto	u195_21
  1901     02F8  2AFA               	goto	u195_20
  1902     02F9                     u195_21:
  1903     02F9  2B03               	goto	i1l1772
  1904     02FA                     u195_20:
  1905     02FA                     i1l1768:
  1906     02FA  3000               	movlw	0
  1907     02FB  00A3               	movwf	?___fldiv+3
  1908     02FC  3000               	movlw	0
  1909     02FD  00A2               	movwf	?___fldiv+2
  1910     02FE  3000               	movlw	0
  1911     02FF  00A1               	movwf	?___fldiv+1
  1912     0300  3000               	movlw	0
  1913     0301  00A0               	movwf	?___fldiv
  1914     0302  2C50               	goto	i1l641
  1915     0303                     i1l1772:
  1916     0303  0838               	movf	___fldiv@bexp,w
  1917     0304  00A8               	movwf	??___fldiv
  1918     0305  01A9               	clrf	??___fldiv+1
  1919     0306  0829               	movf	??___fldiv+1,w
  1920     0307  00AB               	movwf	??___fldiv+3
  1921     0308  0839               	movf	___fldiv@aexp,w
  1922     0309  0228               	subwf	??___fldiv,w
  1923     030A  00AA               	movwf	??___fldiv+2
  1924     030B  1C03               	skipc
  1925     030C  03AB               	decf	??___fldiv+3,f
  1926     030D  082A               	movf	??___fldiv+2,w
  1927     030E  3E7F               	addlw	127
  1928     030F  00B2               	movwf	___fldiv@new_exp
  1929     0310  082B               	movf	??___fldiv+3,w
  1930     0311  1803               	skipnc
  1931     0312  3E01               	addlw	1
  1932     0313  3E00               	addlw	0
  1933     0314  00B3               	movwf	___fldiv@new_exp+1
  1934     0315                     i1l1774:
  1935     0315  0827               	movf	___fldiv@b+3,w
  1936     0316  00B0               	movwf	___fldiv@rem+3
  1937     0317  0826               	movf	___fldiv@b+2,w
  1938     0318  00AF               	movwf	___fldiv@rem+2
  1939     0319  0825               	movf	___fldiv@b+1,w
  1940     031A  00AE               	movwf	___fldiv@rem+1
  1941     031B  0824               	movf	___fldiv@b,w
  1942     031C  00AD               	movwf	___fldiv@rem
  1943     031D                     i1l1776:
  1944     031D  3000               	movlw	0
  1945     031E  00A7               	movwf	___fldiv@b+3
  1946     031F  3000               	movlw	0
  1947     0320  00A6               	movwf	___fldiv@b+2
  1948     0321  3000               	movlw	0
  1949     0322  00A5               	movwf	___fldiv@b+1
  1950     0323  3000               	movlw	0
  1951     0324  00A4               	movwf	___fldiv@b
  1952     0325                     i1l1778:
  1953     0325  3000               	movlw	0
  1954     0326  00B7               	movwf	___fldiv@grs+3
  1955     0327  3000               	movlw	0
  1956     0328  00B6               	movwf	___fldiv@grs+2
  1957     0329  3000               	movlw	0
  1958     032A  00B5               	movwf	___fldiv@grs+1
  1959     032B  3000               	movlw	0
  1960     032C  00B4               	movwf	___fldiv@grs
  1961     032D                     i1l1780:
  1962     032D  01B9               	clrf	___fldiv@aexp
  1963     032E  2B79               	goto	i1l1800
  1964     032F                     i1l1782:
  1965     032F  0839               	movf	___fldiv@aexp,w
  1966     0330  1903               	btfsc	3,2
  1967     0331  2B33               	goto	u196_21
  1968     0332  2B34               	goto	u196_20
  1969     0333                     u196_21:
  1970     0333  2B54               	goto	i1l1792
  1971     0334                     u196_20:
  1972     0334                     i1l1784:
  1973     0334  3001               	movlw	1
  1974     0335  00A8               	movwf	??___fldiv
  1975     0336                     u197_25:
  1976     0336  1003               	clrc
  1977     0337  0DAD               	rlf	___fldiv@rem,f
  1978     0338  0DAE               	rlf	___fldiv@rem+1,f
  1979     0339  0DAF               	rlf	___fldiv@rem+2,f
  1980     033A  0DB0               	rlf	___fldiv@rem+3,f
  1981     033B  0BA8               	decfsz	??___fldiv,f
  1982     033C  2B36               	goto	u197_25
  1983     033D  3001               	movlw	1
  1984     033E  00A8               	movwf	??___fldiv
  1985     033F                     u198_25:
  1986     033F  1003               	clrc
  1987     0340  0DA4               	rlf	___fldiv@b,f
  1988     0341  0DA5               	rlf	___fldiv@b+1,f
  1989     0342  0DA6               	rlf	___fldiv@b+2,f
  1990     0343  0DA7               	rlf	___fldiv@b+3,f
  1991     0344  0BA8               	decfsz	??___fldiv,f
  1992     0345  2B3F               	goto	u198_25
  1993     0346                     i1l1786:
  1994     0346  1FB7               	btfss	___fldiv@grs+3,7
  1995     0347  2B49               	goto	u199_21
  1996     0348  2B4A               	goto	u199_20
  1997     0349                     u199_21:
  1998     0349  2B4B               	goto	i1l1790
  1999     034A                     u199_20:
  2000     034A                     i1l1788:
  2001     034A  1424               	bsf	___fldiv@b,0
  2002     034B                     i1l1790:
  2003     034B  3001               	movlw	1
  2004     034C  00A8               	movwf	??___fldiv
  2005     034D                     u200_25:
  2006     034D  1003               	clrc
  2007     034E  0DB4               	rlf	___fldiv@grs,f
  2008     034F  0DB5               	rlf	___fldiv@grs+1,f
  2009     0350  0DB6               	rlf	___fldiv@grs+2,f
  2010     0351  0DB7               	rlf	___fldiv@grs+3,f
  2011     0352  0BA8               	decfsz	??___fldiv,f
  2012     0353  2B4D               	goto	u200_25
  2013     0354                     i1l1792:
  2014     0354  0823               	movf	___fldiv@a+3,w
  2015     0355  0230               	subwf	___fldiv@rem+3,w
  2016     0356  1D03               	skipz
  2017     0357  2B62               	goto	u201_25
  2018     0358  0822               	movf	___fldiv@a+2,w
  2019     0359  022F               	subwf	___fldiv@rem+2,w
  2020     035A  1D03               	skipz
  2021     035B  2B62               	goto	u201_25
  2022     035C  0821               	movf	___fldiv@a+1,w
  2023     035D  022E               	subwf	___fldiv@rem+1,w
  2024     035E  1D03               	skipz
  2025     035F  2B62               	goto	u201_25
  2026     0360  0820               	movf	___fldiv@a,w
  2027     0361  022D               	subwf	___fldiv@rem,w
  2028     0362                     u201_25:
  2029     0362  1C03               	skipc
  2030     0363  2B65               	goto	u201_21
  2031     0364  2B66               	goto	u201_20
  2032     0365                     u201_21:
  2033     0365  2B75               	goto	i1l1798
  2034     0366                     u201_20:
  2035     0366                     i1l1794:
  2036     0366  1737               	bsf	___fldiv@grs+3,6
  2037     0367                     i1l1796:
  2038     0367  0820               	movf	___fldiv@a,w
  2039     0368  02AD               	subwf	___fldiv@rem,f
  2040     0369  0821               	movf	___fldiv@a+1,w
  2041     036A  1C03               	skipc
  2042     036B  0F21               	incfsz	___fldiv@a+1,w
  2043     036C  02AE               	subwf	___fldiv@rem+1,f
  2044     036D  0822               	movf	___fldiv@a+2,w
  2045     036E  1C03               	skipc
  2046     036F  0F22               	incfsz	___fldiv@a+2,w
  2047     0370  02AF               	subwf	___fldiv@rem+2,f
  2048     0371  0823               	movf	___fldiv@a+3,w
  2049     0372  1C03               	skipc
  2050     0373  0F23               	incfsz	___fldiv@a+3,w
  2051     0374  02B0               	subwf	___fldiv@rem+3,f
  2052     0375                     i1l1798:
  2053     0375  3001               	movlw	1
  2054     0376  00A8               	movwf	??___fldiv
  2055     0377  0828               	movf	??___fldiv,w
  2056     0378  07B9               	addwf	___fldiv@aexp,f
  2057     0379                     i1l1800:
  2058     0379  301A               	movlw	26
  2059     037A  0239               	subwf	___fldiv@aexp,w
  2060     037B  1C03               	skipc
  2061     037C  2B7E               	goto	u202_21
  2062     037D  2B7F               	goto	u202_20
  2063     037E                     u202_21:
  2064     037E  2B2F               	goto	i1l1782
  2065     037F                     u202_20:
  2066     037F                     i1l1802:
  2067     037F  0830               	movf	___fldiv@rem+3,w
  2068     0380  042F               	iorwf	___fldiv@rem+2,w
  2069     0381  042E               	iorwf	___fldiv@rem+1,w
  2070     0382  042D               	iorwf	___fldiv@rem,w
  2071     0383  1903               	skipnz
  2072     0384  2B86               	goto	u203_21
  2073     0385  2B87               	goto	u203_20
  2074     0386                     u203_21:
  2075     0386  2BA6               	goto	i1l1816
  2076     0387                     u203_20:
  2077     0387                     i1l1804:
  2078     0387  1434               	bsf	___fldiv@grs,0
  2079     0388  2BA6               	goto	i1l1816
  2080     0389                     i1l1806:
  2081     0389  3001               	movlw	1
  2082     038A  00A8               	movwf	??___fldiv
  2083     038B                     u204_25:
  2084     038B  1003               	clrc
  2085     038C  0DA4               	rlf	___fldiv@b,f
  2086     038D  0DA5               	rlf	___fldiv@b+1,f
  2087     038E  0DA6               	rlf	___fldiv@b+2,f
  2088     038F  0DA7               	rlf	___fldiv@b+3,f
  2089     0390  0BA8               	decfsz	??___fldiv,f
  2090     0391  2B8B               	goto	u204_25
  2091     0392                     i1l1808:
  2092     0392  1FB7               	btfss	___fldiv@grs+3,7
  2093     0393  2B95               	goto	u205_21
  2094     0394  2B96               	goto	u205_20
  2095     0395                     u205_21:
  2096     0395  2B97               	goto	i1l1812
  2097     0396                     u205_20:
  2098     0396                     i1l1810:
  2099     0396  1424               	bsf	___fldiv@b,0
  2100     0397                     i1l1812:
  2101     0397  3001               	movlw	1
  2102     0398  00A8               	movwf	??___fldiv
  2103     0399                     u206_25:
  2104     0399  1003               	clrc
  2105     039A  0DB4               	rlf	___fldiv@grs,f
  2106     039B  0DB5               	rlf	___fldiv@grs+1,f
  2107     039C  0DB6               	rlf	___fldiv@grs+2,f
  2108     039D  0DB7               	rlf	___fldiv@grs+3,f
  2109     039E  0BA8               	decfsz	??___fldiv,f
  2110     039F  2B99               	goto	u206_25
  2111     03A0                     i1l1814:
  2112     03A0  30FF               	movlw	255
  2113     03A1  07B2               	addwf	___fldiv@new_exp,f
  2114     03A2  1803               	skipnc
  2115     03A3  0AB3               	incf	___fldiv@new_exp+1,f
  2116     03A4  30FF               	movlw	255
  2117     03A5  07B3               	addwf	___fldiv@new_exp+1,f
  2118     03A6                     i1l1816:
  2119     03A6  1FA6               	btfss	___fldiv@b+2,7
  2120     03A7  2BA9               	goto	u207_21
  2121     03A8  2BAA               	goto	u207_20
  2122     03A9                     u207_21:
  2123     03A9  2B89               	goto	i1l1806
  2124     03AA                     u207_20:
  2125     03AA                     i1l1818:
  2126     03AA  01B9               	clrf	___fldiv@aexp
  2127     03AB                     i1l1820:
  2128     03AB  1FB7               	btfss	___fldiv@grs+3,7
  2129     03AC  2BAE               	goto	u208_21
  2130     03AD  2BAF               	goto	u208_20
  2131     03AE                     u208_21:
  2132     03AE  2BCB               	goto	i1l1828
  2133     03AF                     u208_20:
  2134     03AF                     i1l1822:
  2135     03AF  30FF               	movlw	255
  2136     03B0  0534               	andwf	___fldiv@grs,w
  2137     03B1  00A8               	movwf	??___fldiv
  2138     03B2  30FF               	movlw	255
  2139     03B3  0535               	andwf	___fldiv@grs+1,w
  2140     03B4  00A9               	movwf	??___fldiv+1
  2141     03B5  30FF               	movlw	255
  2142     03B6  0536               	andwf	___fldiv@grs+2,w
  2143     03B7  00AA               	movwf	??___fldiv+2
  2144     03B8  307F               	movlw	127
  2145     03B9  0537               	andwf	___fldiv@grs+3,w
  2146     03BA  00AB               	movwf	??___fldiv+3
  2147     03BB  082B               	movf	??___fldiv+3,w
  2148     03BC  042A               	iorwf	??___fldiv+2,w
  2149     03BD  0429               	iorwf	??___fldiv+1,w
  2150     03BE  0428               	iorwf	??___fldiv,w
  2151     03BF  1903               	skipnz
  2152     03C0  2BC2               	goto	u209_21
  2153     03C1  2BC3               	goto	u209_20
  2154     03C2                     u209_21:
  2155     03C2  2BC6               	goto	i1l655
  2156     03C3                     u209_20:
  2157     03C3                     i1l1824:
  2158     03C3  01B9               	clrf	___fldiv@aexp
  2159     03C4  0AB9               	incf	___fldiv@aexp,f
  2160     03C5  2BCB               	goto	i1l1828
  2161     03C6                     i1l655:
  2162     03C6  1C24               	btfss	___fldiv@b,0
  2163     03C7  2BC9               	goto	u210_21
  2164     03C8  2BCA               	goto	u210_20
  2165     03C9                     u210_21:
  2166     03C9  2BCB               	goto	i1l1828
  2167     03CA                     u210_20:
  2168     03CA  2BC3               	goto	i1l1824
  2169     03CB                     i1l1828:
  2170     03CB  0839               	movf	___fldiv@aexp,w
  2171     03CC  1903               	btfsc	3,2
  2172     03CD  2BCF               	goto	u211_21
  2173     03CE  2BD0               	goto	u211_20
  2174     03CF                     u211_21:
  2175     03CF  2C01               	goto	i1l1838
  2176     03D0                     u211_20:
  2177     03D0                     i1l1830:
  2178     03D0  3001               	movlw	1
  2179     03D1  07A4               	addwf	___fldiv@b,f
  2180     03D2  3000               	movlw	0
  2181     03D3  1803               	skipnc
  2182     03D4  3001               	movlw	1
  2183     03D5  07A5               	addwf	___fldiv@b+1,f
  2184     03D6  3000               	movlw	0
  2185     03D7  1803               	skipnc
  2186     03D8  3001               	movlw	1
  2187     03D9  07A6               	addwf	___fldiv@b+2,f
  2188     03DA  3000               	movlw	0
  2189     03DB  1803               	skipnc
  2190     03DC  3001               	movlw	1
  2191     03DD  07A7               	addwf	___fldiv@b+3,f
  2192     03DE                     i1l1832:
  2193     03DE  1C27               	btfss	___fldiv@b+3,0
  2194     03DF  2BE1               	goto	u212_21
  2195     03E0  2BE2               	goto	u212_20
  2196     03E1                     u212_21:
  2197     03E1  2C01               	goto	i1l1838
  2198     03E2                     u212_20:
  2199     03E2                     i1l1834:
  2200     03E2  0824               	movf	___fldiv@b,w
  2201     03E3  00A8               	movwf	??___fldiv
  2202     03E4  0825               	movf	___fldiv@b+1,w
  2203     03E5  00A9               	movwf	??___fldiv+1
  2204     03E6  0826               	movf	___fldiv@b+2,w
  2205     03E7  00AA               	movwf	??___fldiv+2
  2206     03E8  0827               	movf	___fldiv@b+3,w
  2207     03E9  00AB               	movwf	??___fldiv+3
  2208     03EA  3001               	movlw	1
  2209     03EB  00AC               	movwf	??___fldiv+4
  2210     03EC                     u213_25:
  2211     03EC  0D2B               	rlf	??___fldiv+3,w
  2212     03ED  0CAB               	rrf	??___fldiv+3,f
  2213     03EE  0CAA               	rrf	??___fldiv+2,f
  2214     03EF  0CA9               	rrf	??___fldiv+1,f
  2215     03F0  0CA8               	rrf	??___fldiv,f
  2216     03F1                     u213_20:
  2217     03F1  0BAC               	decfsz	??___fldiv+4,f
  2218     03F2  2BEC               	goto	u213_25
  2219     03F3  082B               	movf	??___fldiv+3,w
  2220     03F4  00A7               	movwf	___fldiv@b+3
  2221     03F5  082A               	movf	??___fldiv+2,w
  2222     03F6  00A6               	movwf	___fldiv@b+2
  2223     03F7  0829               	movf	??___fldiv+1,w
  2224     03F8  00A5               	movwf	___fldiv@b+1
  2225     03F9  0828               	movf	??___fldiv,w
  2226     03FA  00A4               	movwf	___fldiv@b
  2227     03FB                     i1l1836:
  2228     03FB  3001               	movlw	1
  2229     03FC  07B2               	addwf	___fldiv@new_exp,f
  2230     03FD  1803               	skipnc
  2231     03FE  0AB3               	incf	___fldiv@new_exp+1,f
  2232     03FF  3000               	movlw	0
  2233     0400  07B3               	addwf	___fldiv@new_exp+1,f
  2234     0401                     i1l1838:
  2235     0401  0833               	movf	___fldiv@new_exp+1,w
  2236     0402  3A80               	xorlw	128
  2237     0403  00FF               	movwf	btemp+1
  2238     0404  3080               	movlw	128
  2239     0405  027F               	subwf	btemp+1,w
  2240     0406  1D03               	skipz
  2241     0407  2C0A               	goto	u214_25
  2242     0408  30FF               	movlw	255
  2243     0409  0232               	subwf	___fldiv@new_exp,w
  2244     040A                     u214_25:
  2245     040A  1C03               	skipc
  2246     040B  2C0D               	goto	u214_21
  2247     040C  2C0E               	goto	u214_20
  2248     040D                     u214_21:
  2249     040D  2C1C               	goto	i1l1842
  2250     040E                     u214_20:
  2251     040E                     i1l1840:
  2252     040E  30FF               	movlw	255
  2253     040F  1283               	bcf	3,5	;RP0=0, select bank0
  2254     0410  1303               	bcf	3,6	;RP1=0, select bank0
  2255     0411  00B2               	movwf	___fldiv@new_exp
  2256     0412  3000               	movlw	0
  2257     0413  00B3               	movwf	___fldiv@new_exp+1
  2258     0414  3000               	movlw	0
  2259     0415  00A7               	movwf	___fldiv@b+3
  2260     0416  3000               	movlw	0
  2261     0417  00A6               	movwf	___fldiv@b+2
  2262     0418  3000               	movlw	0
  2263     0419  00A5               	movwf	___fldiv@b+1
  2264     041A  3000               	movlw	0
  2265     041B  00A4               	movwf	___fldiv@b
  2266     041C                     i1l1842:
  2267     041C  1283               	bcf	3,5	;RP0=0, select bank0
  2268     041D  1303               	bcf	3,6	;RP1=0, select bank0
  2269     041E  0833               	movf	___fldiv@new_exp+1,w
  2270     041F  3A80               	xorlw	128
  2271     0420  00FF               	movwf	btemp+1
  2272     0421  3080               	movlw	128
  2273     0422  027F               	subwf	btemp+1,w
  2274     0423  1D03               	skipz
  2275     0424  2C27               	goto	u215_25
  2276     0425  3001               	movlw	1
  2277     0426  0232               	subwf	___fldiv@new_exp,w
  2278     0427                     u215_25:
  2279     0427  1803               	skipnc
  2280     0428  2C2A               	goto	u215_21
  2281     0429  2C2B               	goto	u215_20
  2282     042A                     u215_21:
  2283     042A  2C38               	goto	i1l661
  2284     042B                     u215_20:
  2285     042B                     i1l1844:
  2286     042B  1283               	bcf	3,5	;RP0=0, select bank0
  2287     042C  1303               	bcf	3,6	;RP1=0, select bank0
  2288     042D  01B2               	clrf	___fldiv@new_exp
  2289     042E  01B3               	clrf	___fldiv@new_exp+1
  2290     042F                     i1l1846:
  2291     042F  3000               	movlw	0
  2292     0430  00A7               	movwf	___fldiv@b+3
  2293     0431  3000               	movlw	0
  2294     0432  00A6               	movwf	___fldiv@b+2
  2295     0433  3000               	movlw	0
  2296     0434  00A5               	movwf	___fldiv@b+1
  2297     0435  3000               	movlw	0
  2298     0436  00A4               	movwf	___fldiv@b
  2299     0437                     i1l1848:
  2300     0437  01B1               	clrf	___fldiv@sign
  2301     0438                     i1l661:
  2302     0438  1283               	bcf	3,5	;RP0=0, select bank0
  2303     0439  1303               	bcf	3,6	;RP1=0, select bank0
  2304     043A  0832               	movf	___fldiv@new_exp,w
  2305     043B  00B8               	movwf	___fldiv@bexp
  2306     043C                     i1l1850:
  2307     043C  1C38               	btfss	___fldiv@bexp,0
  2308     043D  2C3F               	goto	u216_21
  2309     043E  2C40               	goto	u216_20
  2310     043F                     u216_21:
  2311     043F  2C42               	goto	i1l1854
  2312     0440                     u216_20:
  2313     0440                     i1l1852:
  2314     0440  17A6               	bsf	___fldiv@b+2,7
  2315     0441  2C46               	goto	i1l663
  2316     0442                     i1l1854:
  2317     0442  307F               	movlw	127
  2318     0443  00A8               	movwf	??___fldiv
  2319     0444  0828               	movf	??___fldiv,w
  2320     0445  05A6               	andwf	___fldiv@b+2,f
  2321     0446                     i1l663:
  2322     0446  0838               	movf	___fldiv@bexp,w
  2323     0447  00A8               	movwf	??___fldiv
  2324     0448  1003               	clrc
  2325     0449  0C28               	rrf	??___fldiv,w
  2326     044A  00A7               	movwf	___fldiv@b+3
  2327     044B  0831               	movf	___fldiv@sign,w
  2328     044C  00A8               	movwf	??___fldiv
  2329     044D  0828               	movf	??___fldiv,w
  2330     044E  04A7               	iorwf	___fldiv@b+3,f
  2331     044F  2AEC               	goto	i1l1762
  2332     0450                     i1l641:
  2333     0450  0008               	return
  2334     0451                     __end_of___fldiv:
  2335                           
  2336                           	psect	text7
  2337     0026                     __ptext7:	
  2338 ;; *************** function ___fladd *****************
  2339 ;; Defined at:
  2340 ;;		line 10 in file "C:\Program Files\Microchip\xc8\v2.40\pic\sources\c90\common\sprcadd.c"
  2341 ;; Parameters:    Size  Location     Type
  2342 ;;  b               4   26[BANK0 ] unsigned char 
  2343 ;;  a               4   30[BANK0 ] unsigned char 
  2344 ;; Auto vars:     Size  Location     Type
  2345 ;;  grs             1   45[BANK0 ] unsigned char 
  2346 ;;  bexp            1   44[BANK0 ] unsigned char 
  2347 ;;  aexp            1   43[BANK0 ] unsigned char 
  2348 ;;  signs           1   42[BANK0 ] unsigned char 
  2349 ;; Return value:  Size  Location     Type
  2350 ;;                  4   26[BANK0 ] unsigned char 
  2351 ;; Registers used:
  2352 ;;		wreg, status,2, status,0, btemp+1
  2353 ;; Tracked objects:
  2354 ;;		On entry : 0/0
  2355 ;;		On exit  : 0/0
  2356 ;;		Unchanged: 0/0
  2357 ;; Data sizes:     COMMON   BANK0   BANK1   BANK3   BANK2
  2358 ;;      Params:         0       8       0       0       0
  2359 ;;      Locals:         0       4       0       0       0
  2360 ;;      Temps:          0       8       0       0       0
  2361 ;;      Totals:         0      20       0       0       0
  2362 ;;Total ram usage:       20 bytes
  2363 ;; Hardware stack levels used: 1
  2364 ;; This function calls:
  2365 ;;		Nothing
  2366 ;; This function is called by:
  2367 ;;		_readTemp
  2368 ;; This function uses a non-reentrant model
  2369 ;;
  2370                           
  2371     0026                     ___fladd:	
  2372                           ;psect for function ___fladd
  2373                           
  2374     0026                     i1l1524:	
  2375                           ;incstack = 0
  2376                           ; Regs used in ___fladd: [wreg+status,2+status,0+btemp+1]
  2377                           
  2378     0026  1283               	bcf	3,5	;RP0=0, select bank0
  2379     0027  1303               	bcf	3,6	;RP1=0, select bank0
  2380     0028  083D               	movf	___fladd@b+3,w
  2381     0029  3980               	andlw	128
  2382     002A  00CA               	movwf	___fladd@signs
  2383     002B                     i1l1526:
  2384     002B  083D               	movf	___fladd@b+3,w
  2385     002C  00C2               	movwf	??___fladd
  2386     002D  0742               	addwf	??___fladd,w
  2387     002E  00CC               	movwf	___fladd@bexp
  2388     002F                     i1l1528:
  2389     002F  1FBC               	btfss	___fladd@b+2,7
  2390     0030  2832               	goto	u142_21
  2391     0031  2833               	goto	u142_20
  2392     0032                     u142_21:
  2393     0032  2834               	goto	i1l1532
  2394     0033                     u142_20:
  2395     0033                     i1l1530:
  2396     0033  144C               	bsf	___fladd@bexp,0
  2397     0034                     i1l1532:
  2398     0034  084C               	movf	___fladd@bexp,w
  2399     0035  1903               	btfsc	3,2
  2400     0036  2838               	goto	u143_21
  2401     0037  2839               	goto	u143_20
  2402     0038                     u143_21:
  2403     0038  2849               	goto	i1l1542
  2404     0039                     u143_20:
  2405     0039                     i1l1534:
  2406     0039  0A4C               	incf	___fladd@bexp,w
  2407     003A  1D03               	btfss	3,2
  2408     003B  283D               	goto	u144_21
  2409     003C  283E               	goto	u144_20
  2410     003D                     u144_21:
  2411     003D  2846               	goto	i1l1538
  2412     003E                     u144_20:
  2413     003E                     i1l1536:
  2414     003E  3000               	movlw	0
  2415     003F  00BD               	movwf	___fladd@b+3
  2416     0040  3000               	movlw	0
  2417     0041  00BC               	movwf	___fladd@b+2
  2418     0042  3000               	movlw	0
  2419     0043  00BB               	movwf	___fladd@b+1
  2420     0044  3000               	movlw	0
  2421     0045  00BA               	movwf	___fladd@b
  2422     0046                     i1l1538:
  2423     0046  17BC               	bsf	___fladd@b+2,7
  2424     0047                     i1l1540:
  2425     0047  01BD               	clrf	___fladd@b+3
  2426     0048  2851               	goto	i1l1544
  2427     0049                     i1l1542:
  2428     0049  3000               	movlw	0
  2429     004A  00BD               	movwf	___fladd@b+3
  2430     004B  3000               	movlw	0
  2431     004C  00BC               	movwf	___fladd@b+2
  2432     004D  3000               	movlw	0
  2433     004E  00BB               	movwf	___fladd@b+1
  2434     004F  3000               	movlw	0
  2435     0050  00BA               	movwf	___fladd@b
  2436     0051                     i1l1544:
  2437     0051  0841               	movf	___fladd@a+3,w
  2438     0052  3980               	andlw	128
  2439     0053  00CB               	movwf	___fladd@aexp
  2440     0054                     i1l1546:
  2441     0054  084B               	movf	___fladd@aexp,w
  2442     0055  064A               	xorwf	___fladd@signs,w
  2443     0056  1903               	skipnz
  2444     0057  2859               	goto	u145_21
  2445     0058  285A               	goto	u145_20
  2446     0059                     u145_21:
  2447     0059  285B               	goto	i1l1550
  2448     005A                     u145_20:
  2449     005A                     i1l1548:
  2450     005A  174A               	bsf	___fladd@signs,6
  2451     005B                     i1l1550:
  2452     005B  0841               	movf	___fladd@a+3,w
  2453     005C  00C2               	movwf	??___fladd
  2454     005D  0742               	addwf	??___fladd,w
  2455     005E  00CB               	movwf	___fladd@aexp
  2456     005F                     i1l1552:
  2457     005F  1FC0               	btfss	___fladd@a+2,7
  2458     0060  2862               	goto	u146_21
  2459     0061  2863               	goto	u146_20
  2460     0062                     u146_21:
  2461     0062  2864               	goto	i1l1556
  2462     0063                     u146_20:
  2463     0063                     i1l1554:
  2464     0063  144B               	bsf	___fladd@aexp,0
  2465     0064                     i1l1556:
  2466     0064  084B               	movf	___fladd@aexp,w
  2467     0065  1903               	btfsc	3,2
  2468     0066  2868               	goto	u147_21
  2469     0067  2869               	goto	u147_20
  2470     0068                     u147_21:
  2471     0068  2879               	goto	i1l1566
  2472     0069                     u147_20:
  2473     0069                     i1l1558:
  2474     0069  0A4B               	incf	___fladd@aexp,w
  2475     006A  1D03               	btfss	3,2
  2476     006B  286D               	goto	u148_21
  2477     006C  286E               	goto	u148_20
  2478     006D                     u148_21:
  2479     006D  2876               	goto	i1l1562
  2480     006E                     u148_20:
  2481     006E                     i1l1560:
  2482     006E  3000               	movlw	0
  2483     006F  00C1               	movwf	___fladd@a+3
  2484     0070  3000               	movlw	0
  2485     0071  00C0               	movwf	___fladd@a+2
  2486     0072  3000               	movlw	0
  2487     0073  00BF               	movwf	___fladd@a+1
  2488     0074  3000               	movlw	0
  2489     0075  00BE               	movwf	___fladd@a
  2490     0076                     i1l1562:
  2491     0076  17C0               	bsf	___fladd@a+2,7
  2492     0077                     i1l1564:
  2493     0077  01C1               	clrf	___fladd@a+3
  2494     0078  2881               	goto	i1l583
  2495     0079                     i1l1566:
  2496     0079  3000               	movlw	0
  2497     007A  00C1               	movwf	___fladd@a+3
  2498     007B  3000               	movlw	0
  2499     007C  00C0               	movwf	___fladd@a+2
  2500     007D  3000               	movlw	0
  2501     007E  00BF               	movwf	___fladd@a+1
  2502     007F  3000               	movlw	0
  2503     0080  00BE               	movwf	___fladd@a
  2504     0081                     i1l583:
  2505     0081  084C               	movf	___fladd@bexp,w
  2506     0082  024B               	subwf	___fladd@aexp,w
  2507     0083  1803               	skipnc
  2508     0084  2886               	goto	u149_21
  2509     0085  2887               	goto	u149_20
  2510     0086                     u149_21:
  2511     0086  28AD               	goto	i1l1602
  2512     0087                     u149_20:
  2513     0087                     i1l1568:
  2514     0087  1F4A               	btfss	___fladd@signs,6
  2515     0088  288A               	goto	u150_21
  2516     0089  288B               	goto	u150_20
  2517     008A                     u150_21:
  2518     008A  288F               	goto	i1l1572
  2519     008B                     u150_20:
  2520     008B                     i1l1570:
  2521     008B  3080               	movlw	128
  2522     008C  00C2               	movwf	??___fladd
  2523     008D  0842               	movf	??___fladd,w
  2524     008E  06CA               	xorwf	___fladd@signs,f
  2525     008F                     i1l1572:
  2526     008F  084C               	movf	___fladd@bexp,w
  2527     0090  00CD               	movwf	___fladd@grs
  2528     0091                     i1l1574:
  2529     0091  084B               	movf	___fladd@aexp,w
  2530     0092  00CC               	movwf	___fladd@bexp
  2531     0093                     i1l1576:
  2532     0093  084D               	movf	___fladd@grs,w
  2533     0094  00CB               	movwf	___fladd@aexp
  2534     0095                     i1l1578:
  2535     0095  083A               	movf	___fladd@b,w
  2536     0096  00CD               	movwf	___fladd@grs
  2537     0097                     i1l1580:
  2538     0097  083E               	movf	___fladd@a,w
  2539     0098  00BA               	movwf	___fladd@b
  2540     0099                     i1l1582:
  2541     0099  084D               	movf	___fladd@grs,w
  2542     009A  00BE               	movwf	___fladd@a
  2543     009B                     i1l1584:
  2544     009B  083B               	movf	___fladd@b+1,w
  2545     009C  00CD               	movwf	___fladd@grs
  2546     009D                     i1l1586:
  2547     009D  083F               	movf	___fladd@a+1,w
  2548     009E  00BB               	movwf	___fladd@b+1
  2549     009F                     i1l1588:
  2550     009F  084D               	movf	___fladd@grs,w
  2551     00A0  00BF               	movwf	___fladd@a+1
  2552     00A1                     i1l1590:
  2553     00A1  083C               	movf	___fladd@b+2,w
  2554     00A2  00CD               	movwf	___fladd@grs
  2555     00A3                     i1l1592:
  2556     00A3  0840               	movf	___fladd@a+2,w
  2557     00A4  00BC               	movwf	___fladd@b+2
  2558     00A5                     i1l1594:
  2559     00A5  084D               	movf	___fladd@grs,w
  2560     00A6  00C0               	movwf	___fladd@a+2
  2561     00A7                     i1l1596:
  2562     00A7  083D               	movf	___fladd@b+3,w
  2563     00A8  00CD               	movwf	___fladd@grs
  2564     00A9                     i1l1598:
  2565     00A9  0841               	movf	___fladd@a+3,w
  2566     00AA  00BD               	movwf	___fladd@b+3
  2567     00AB                     i1l1600:
  2568     00AB  084D               	movf	___fladd@grs,w
  2569     00AC  00C1               	movwf	___fladd@a+3
  2570     00AD                     i1l1602:
  2571     00AD  01CD               	clrf	___fladd@grs
  2572     00AE                     i1l1604:
  2573     00AE  084B               	movf	___fladd@aexp,w
  2574     00AF  00C2               	movwf	??___fladd
  2575     00B0  01C3               	clrf	??___fladd+1
  2576     00B1  0843               	movf	??___fladd+1,w
  2577     00B2  00C5               	movwf	??___fladd+3
  2578     00B3  084C               	movf	___fladd@bexp,w
  2579     00B4  0242               	subwf	??___fladd,w
  2580     00B5  00C4               	movwf	??___fladd+2
  2581     00B6  1C03               	skipc
  2582     00B7  03C5               	decf	??___fladd+3,f
  2583     00B8  0845               	movf	??___fladd+3,w
  2584     00B9  3A80               	xorlw	128
  2585     00BA  00FF               	movwf	btemp+1
  2586     00BB  3080               	movlw	128
  2587     00BC  027F               	subwf	btemp+1,w
  2588     00BD  1D03               	skipz
  2589     00BE  28C1               	goto	u151_25
  2590     00BF  301A               	movlw	26
  2591     00C0  0244               	subwf	??___fladd+2,w
  2592     00C1                     u151_25:
  2593     00C1  1C03               	skipc
  2594     00C2  28C4               	goto	u151_21
  2595     00C3  28C5               	goto	u151_20
  2596     00C4                     u151_21:
  2597     00C4  28FC               	goto	i1l1620
  2598     00C5                     u151_20:
  2599     00C5                     i1l1606:
  2600     00C5  1283               	bcf	3,5	;RP0=0, select bank0
  2601     00C6  1303               	bcf	3,6	;RP1=0, select bank0
  2602     00C7  083D               	movf	___fladd@b+3,w
  2603     00C8  043C               	iorwf	___fladd@b+2,w
  2604     00C9  043B               	iorwf	___fladd@b+1,w
  2605     00CA  043A               	iorwf	___fladd@b,w
  2606     00CB  1D03               	skipz
  2607     00CC  28CE               	goto	u152_21
  2608     00CD  28D0               	goto	u152_20
  2609     00CE                     u152_21:
  2610     00CE  3001               	movlw	1
  2611     00CF  28D1               	goto	u153_20
  2612     00D0                     u152_20:
  2613     00D0  3000               	movlw	0
  2614     00D1                     u153_20:
  2615     00D1  00CD               	movwf	___fladd@grs
  2616     00D2  3000               	movlw	0
  2617     00D3  00BD               	movwf	___fladd@b+3
  2618     00D4  3000               	movlw	0
  2619     00D5  00BC               	movwf	___fladd@b+2
  2620     00D6  3000               	movlw	0
  2621     00D7  00BB               	movwf	___fladd@b+1
  2622     00D8  3000               	movlw	0
  2623     00D9  00BA               	movwf	___fladd@b
  2624     00DA  084B               	movf	___fladd@aexp,w
  2625     00DB  00CC               	movwf	___fladd@bexp
  2626     00DC  2904               	goto	i1l587
  2627     00DD                     i1l589:
  2628     00DD  1C4D               	btfss	___fladd@grs,0
  2629     00DE  28E0               	goto	u154_21
  2630     00DF  28E1               	goto	u154_20
  2631     00E0                     u154_21:
  2632     00E0  28E8               	goto	i1l1610
  2633     00E1                     u154_20:
  2634     00E1                     i1l1608:
  2635     00E1  084D               	movf	___fladd@grs,w
  2636     00E2  00C2               	movwf	??___fladd
  2637     00E3  1003               	clrc
  2638     00E4  0C42               	rrf	??___fladd,w
  2639     00E5  3801               	iorlw	1
  2640     00E6  00CD               	movwf	___fladd@grs
  2641     00E7  28EA               	goto	i1l1612
  2642     00E8                     i1l1610:
  2643     00E8  1003               	clrc
  2644     00E9  0CCD               	rrf	___fladd@grs,f
  2645     00EA                     i1l1612:
  2646     00EA  1C3A               	btfss	___fladd@b,0
  2647     00EB  28ED               	goto	u155_21
  2648     00EC  28EE               	goto	u155_20
  2649     00ED                     u155_21:
  2650     00ED  28EF               	goto	i1l1616
  2651     00EE                     u155_20:
  2652     00EE                     i1l1614:
  2653     00EE  17CD               	bsf	___fladd@grs,7
  2654     00EF                     i1l1616:
  2655     00EF  3001               	movlw	1
  2656     00F0  00C2               	movwf	??___fladd
  2657     00F1                     u156_25:
  2658     00F1  0D3D               	rlf	___fladd@b+3,w
  2659     00F2  0CBD               	rrf	___fladd@b+3,f
  2660     00F3  0CBC               	rrf	___fladd@b+2,f
  2661     00F4  0CBB               	rrf	___fladd@b+1,f
  2662     00F5  0CBA               	rrf	___fladd@b,f
  2663     00F6  0BC2               	decfsz	??___fladd& (0+127),f
  2664     00F7  28F1               	goto	u156_25
  2665     00F8                     i1l1618:
  2666     00F8  3001               	movlw	1
  2667     00F9  00C2               	movwf	??___fladd
  2668     00FA  0842               	movf	??___fladd,w
  2669     00FB  07CC               	addwf	___fladd@bexp,f
  2670     00FC                     i1l1620:
  2671     00FC  1283               	bcf	3,5	;RP0=0, select bank0
  2672     00FD  1303               	bcf	3,6	;RP1=0, select bank0
  2673     00FE  084B               	movf	___fladd@aexp,w
  2674     00FF  024C               	subwf	___fladd@bexp,w
  2675     0100  1C03               	skipc
  2676     0101  2903               	goto	u157_21
  2677     0102  2904               	goto	u157_20
  2678     0103                     u157_21:
  2679     0103  28DD               	goto	i1l589
  2680     0104                     u157_20:
  2681     0104                     i1l587:
  2682     0104  1B4A               	btfsc	___fladd@signs,6
  2683     0105  2907               	goto	u158_21
  2684     0106  2908               	goto	u158_20
  2685     0107                     u158_21:
  2686     0107  2951               	goto	i1l1646
  2687     0108                     u158_20:
  2688     0108                     i1l1622:
  2689     0108  084C               	movf	___fladd@bexp,w
  2690     0109  1D03               	btfss	3,2
  2691     010A  290C               	goto	u159_21
  2692     010B  290D               	goto	u159_20
  2693     010C                     u159_21:
  2694     010C  2916               	goto	i1l1628
  2695     010D                     u159_20:
  2696     010D                     i1l1624:
  2697     010D  3000               	movlw	0
  2698     010E  00BD               	movwf	?___fladd+3
  2699     010F  3000               	movlw	0
  2700     0110  00BC               	movwf	?___fladd+2
  2701     0111  3000               	movlw	0
  2702     0112  00BB               	movwf	?___fladd+1
  2703     0113  3000               	movlw	0
  2704     0114  00BA               	movwf	?___fladd
  2705     0115  2A7D               	goto	i1l596
  2706     0116                     i1l1628:
  2707     0116  083E               	movf	___fladd@a,w
  2708     0117  07BA               	addwf	___fladd@b,f
  2709     0118  083F               	movf	___fladd@a+1,w
  2710     0119  1103               	clrz
  2711     011A  1803               	skipnc
  2712     011B  3E01               	addlw	1
  2713     011C  1903               	skipnz
  2714     011D  291F               	goto	u160_21
  2715     011E  07BB               	addwf	___fladd@b+1,f
  2716     011F                     u160_21:
  2717     011F  0840               	movf	___fladd@a+2,w
  2718     0120  1103               	clrz
  2719     0121  1803               	skipnc
  2720     0122  3E01               	addlw	1
  2721     0123  1903               	skipnz
  2722     0124  2926               	goto	u160_22
  2723     0125  07BC               	addwf	___fladd@b+2,f
  2724     0126                     u160_22:
  2725     0126  0841               	movf	___fladd@a+3,w
  2726     0127  1103               	clrz
  2727     0128  1803               	skipnc
  2728     0129  3E01               	addlw	1
  2729     012A  1903               	skipnz
  2730     012B  292D               	goto	u160_23
  2731     012C  07BD               	addwf	___fladd@b+3,f
  2732     012D                     u160_23:
  2733     012D                     i1l1630:
  2734     012D  1C3D               	btfss	___fladd@b+3,0
  2735     012E  2930               	goto	u161_21
  2736     012F  2931               	goto	u161_20
  2737     0130                     u161_21:
  2738     0130  2A05               	goto	i1l1680
  2739     0131                     u161_20:
  2740     0131                     i1l1632:
  2741     0131  1C4D               	btfss	___fladd@grs,0
  2742     0132  2934               	goto	u162_21
  2743     0133  2935               	goto	u162_20
  2744     0134                     u162_21:
  2745     0134  293C               	goto	i1l1636
  2746     0135                     u162_20:
  2747     0135                     i1l1634:
  2748     0135  084D               	movf	___fladd@grs,w
  2749     0136  00C2               	movwf	??___fladd
  2750     0137  1003               	clrc
  2751     0138  0C42               	rrf	??___fladd,w
  2752     0139  3801               	iorlw	1
  2753     013A  00CD               	movwf	___fladd@grs
  2754     013B  293E               	goto	i1l1638
  2755     013C                     i1l1636:
  2756     013C  1003               	clrc
  2757     013D  0CCD               	rrf	___fladd@grs,f
  2758     013E                     i1l1638:
  2759     013E  1C3A               	btfss	___fladd@b,0
  2760     013F  2941               	goto	u163_21
  2761     0140  2942               	goto	u163_20
  2762     0141                     u163_21:
  2763     0141  2943               	goto	i1l1642
  2764     0142                     u163_20:
  2765     0142                     i1l1640:
  2766     0142  17CD               	bsf	___fladd@grs,7
  2767     0143                     i1l1642:
  2768     0143  3001               	movlw	1
  2769     0144  00C2               	movwf	??___fladd
  2770     0145                     u164_25:
  2771     0145  0D3D               	rlf	___fladd@b+3,w
  2772     0146  0CBD               	rrf	___fladd@b+3,f
  2773     0147  0CBC               	rrf	___fladd@b+2,f
  2774     0148  0CBB               	rrf	___fladd@b+1,f
  2775     0149  0CBA               	rrf	___fladd@b,f
  2776     014A  0BC2               	decfsz	??___fladd& (0+127),f
  2777     014B  2945               	goto	u164_25
  2778     014C                     i1l1644:
  2779     014C  3001               	movlw	1
  2780     014D  00C2               	movwf	??___fladd
  2781     014E  0842               	movf	??___fladd,w
  2782     014F  07CC               	addwf	___fladd@bexp,f
  2783     0150  2A05               	goto	i1l1680
  2784     0151                     i1l1646:
  2785     0151  083D               	movf	___fladd@b+3,w
  2786     0152  3A80               	xorlw	128
  2787     0153  00FF               	movwf	btemp+1
  2788     0154  0841               	movf	___fladd@a+3,w
  2789     0155  3A80               	xorlw	128
  2790     0156  027F               	subwf	btemp+1,w
  2791     0157  1D03               	skipz
  2792     0158  2963               	goto	u165_23
  2793     0159  0840               	movf	___fladd@a+2,w
  2794     015A  023C               	subwf	___fladd@b+2,w
  2795     015B  1D03               	skipz
  2796     015C  2963               	goto	u165_23
  2797     015D  083F               	movf	___fladd@a+1,w
  2798     015E  023B               	subwf	___fladd@b+1,w
  2799     015F  1D03               	skipz
  2800     0160  2963               	goto	u165_23
  2801     0161  083E               	movf	___fladd@a,w
  2802     0162  023A               	subwf	___fladd@b,w
  2803     0163                     u165_23:
  2804     0163  1803               	skipnc
  2805     0164  2966               	goto	u165_21
  2806     0165  2967               	goto	u165_20
  2807     0166                     u165_21:
  2808     0166  29BF               	goto	i1l1656
  2809     0167                     u165_20:
  2810     0167                     i1l1648:
  2811     0167  30FF               	movlw	255
  2812     0168  00C2               	movwf	??___fladd
  2813     0169  30FF               	movlw	255
  2814     016A  00C3               	movwf	??___fladd+1
  2815     016B  30FF               	movlw	255
  2816     016C  00C4               	movwf	??___fladd+2
  2817     016D  30FF               	movlw	255
  2818     016E  00C5               	movwf	??___fladd+3
  2819     016F  083E               	movf	___fladd@a,w
  2820     0170  00C6               	movwf	??___fladd+4
  2821     0171  083F               	movf	___fladd@a+1,w
  2822     0172  00C7               	movwf	??___fladd+5
  2823     0173  0840               	movf	___fladd@a+2,w
  2824     0174  00C8               	movwf	??___fladd+6
  2825     0175  0841               	movf	___fladd@a+3,w
  2826     0176  00C9               	movwf	??___fladd+7
  2827     0177  083A               	movf	___fladd@b,w
  2828     0178  02C6               	subwf	??___fladd+4,f
  2829     0179  083B               	movf	___fladd@b+1,w
  2830     017A  1C03               	skipc
  2831     017B  0F3B               	incfsz	___fladd@b+1,w
  2832     017C  297E               	goto	u166_21
  2833     017D  297F               	goto	u166_22
  2834     017E                     u166_21:
  2835     017E  02C7               	subwf	??___fladd+5,f
  2836     017F                     u166_22:
  2837     017F  083C               	movf	___fladd@b+2,w
  2838     0180  1C03               	skipc
  2839     0181  0F3C               	incfsz	___fladd@b+2,w
  2840     0182  2984               	goto	u166_23
  2841     0183  2985               	goto	u166_24
  2842     0184                     u166_23:
  2843     0184  02C8               	subwf	??___fladd+6,f
  2844     0185                     u166_24:
  2845     0185  083D               	movf	___fladd@b+3,w
  2846     0186  1C03               	skipc
  2847     0187  0F3D               	incfsz	___fladd@b+3,w
  2848     0188  298A               	goto	u166_25
  2849     0189  298B               	goto	u166_26
  2850     018A                     u166_25:
  2851     018A  02C9               	subwf	??___fladd+7,f
  2852     018B                     u166_26:
  2853     018B  0846               	movf	??___fladd+4,w
  2854     018C  07C2               	addwf	??___fladd,f
  2855     018D  0847               	movf	??___fladd+5,w
  2856     018E  1803               	skipnc
  2857     018F  0F47               	incfsz	??___fladd+5,w
  2858     0190  2992               	goto	u167_20
  2859     0191  2993               	goto	u167_21
  2860     0192                     u167_20:
  2861     0192  07C3               	addwf	??___fladd+1,f
  2862     0193                     u167_21:
  2863     0193  0848               	movf	??___fladd+6,w
  2864     0194  1803               	skipnc
  2865     0195  0F48               	incfsz	??___fladd+6,w
  2866     0196  2998               	goto	u167_22
  2867     0197  2999               	goto	u167_23
  2868     0198                     u167_22:
  2869     0198  07C4               	addwf	??___fladd+2,f
  2870     0199                     u167_23:
  2871     0199  0849               	movf	??___fladd+7,w
  2872     019A  1803               	skipnc
  2873     019B  0A49               	incf	??___fladd+7,w
  2874     019C  07C5               	addwf	??___fladd+3,f
  2875     019D  0845               	movf	??___fladd+3,w
  2876     019E  00BD               	movwf	___fladd@b+3
  2877     019F  0844               	movf	??___fladd+2,w
  2878     01A0  00BC               	movwf	___fladd@b+2
  2879     01A1  0843               	movf	??___fladd+1,w
  2880     01A2  00BB               	movwf	___fladd@b+1
  2881     01A3  0842               	movf	??___fladd,w
  2882     01A4  00BA               	movwf	___fladd@b
  2883     01A5                     i1l1650:
  2884     01A5  3080               	movlw	128
  2885     01A6  00C2               	movwf	??___fladd
  2886     01A7  0842               	movf	??___fladd,w
  2887     01A8  06CA               	xorwf	___fladd@signs,f
  2888     01A9  09CD               	comf	___fladd@grs,f
  2889     01AA  0ACD               	incf	___fladd@grs,f
  2890     01AB                     i1l1652:
  2891     01AB  084D               	movf	___fladd@grs,w
  2892     01AC  1D03               	btfss	3,2
  2893     01AD  29AF               	goto	u168_21
  2894     01AE  29B0               	goto	u168_20
  2895     01AF                     u168_21:
  2896     01AF  29CD               	goto	i1l604
  2897     01B0                     u168_20:
  2898     01B0                     i1l1654:
  2899     01B0  3001               	movlw	1
  2900     01B1  07BA               	addwf	___fladd@b,f
  2901     01B2  3000               	movlw	0
  2902     01B3  1803               	skipnc
  2903     01B4  3001               	movlw	1
  2904     01B5  07BB               	addwf	___fladd@b+1,f
  2905     01B6  3000               	movlw	0
  2906     01B7  1803               	skipnc
  2907     01B8  3001               	movlw	1
  2908     01B9  07BC               	addwf	___fladd@b+2,f
  2909     01BA  3000               	movlw	0
  2910     01BB  1803               	skipnc
  2911     01BC  3001               	movlw	1
  2912     01BD  07BD               	addwf	___fladd@b+3,f
  2913     01BE  29CD               	goto	i1l604
  2914     01BF                     i1l1656:
  2915     01BF  083E               	movf	___fladd@a,w
  2916     01C0  02BA               	subwf	___fladd@b,f
  2917     01C1  083F               	movf	___fladd@a+1,w
  2918     01C2  1C03               	skipc
  2919     01C3  0F3F               	incfsz	___fladd@a+1,w
  2920     01C4  02BB               	subwf	___fladd@b+1,f
  2921     01C5  0840               	movf	___fladd@a+2,w
  2922     01C6  1C03               	skipc
  2923     01C7  0F40               	incfsz	___fladd@a+2,w
  2924     01C8  02BC               	subwf	___fladd@b+2,f
  2925     01C9  0841               	movf	___fladd@a+3,w
  2926     01CA  1C03               	skipc
  2927     01CB  0F41               	incfsz	___fladd@a+3,w
  2928     01CC  02BD               	subwf	___fladd@b+3,f
  2929     01CD                     i1l604:
  2930     01CD  083D               	movf	___fladd@b+3,w
  2931     01CE  043C               	iorwf	___fladd@b+2,w
  2932     01CF  043B               	iorwf	___fladd@b+1,w
  2933     01D0  043A               	iorwf	___fladd@b,w
  2934     01D1  1D03               	skipz
  2935     01D2  29D4               	goto	u169_21
  2936     01D3  29D5               	goto	u169_20
  2937     01D4                     u169_21:
  2938     01D4  2A01               	goto	i1l1678
  2939     01D5                     u169_20:
  2940     01D5                     i1l1658:
  2941     01D5  084D               	movf	___fladd@grs,w
  2942     01D6  1D03               	btfss	3,2
  2943     01D7  29D9               	goto	u170_21
  2944     01D8  29DA               	goto	u170_20
  2945     01D9                     u170_21:
  2946     01D9  2A01               	goto	i1l1678
  2947     01DA                     u170_20:
  2948     01DA                     i1l1660:
  2949     01DA  3000               	movlw	0
  2950     01DB  00BD               	movwf	?___fladd+3
  2951     01DC  3000               	movlw	0
  2952     01DD  00BC               	movwf	?___fladd+2
  2953     01DE  3000               	movlw	0
  2954     01DF  00BB               	movwf	?___fladd+1
  2955     01E0  3000               	movlw	0
  2956     01E1  00BA               	movwf	?___fladd
  2957     01E2  2A7D               	goto	i1l596
  2958     01E3                     i1l1664:
  2959     01E3  3001               	movlw	1
  2960     01E4  00C2               	movwf	??___fladd
  2961     01E5                     u171_25:
  2962     01E5  1003               	clrc
  2963     01E6  0DBA               	rlf	___fladd@b,f
  2964     01E7  0DBB               	rlf	___fladd@b+1,f
  2965     01E8  0DBC               	rlf	___fladd@b+2,f
  2966     01E9  0DBD               	rlf	___fladd@b+3,f
  2967     01EA  0BC2               	decfsz	??___fladd,f
  2968     01EB  29E5               	goto	u171_25
  2969     01EC                     i1l1666:
  2970     01EC  1FCD               	btfss	___fladd@grs,7
  2971     01ED  29EF               	goto	u172_21
  2972     01EE  29F0               	goto	u172_20
  2973     01EF                     u172_21:
  2974     01EF  29F1               	goto	i1l608
  2975     01F0                     u172_20:
  2976     01F0                     i1l1668:
  2977     01F0  143A               	bsf	___fladd@b,0
  2978     01F1                     i1l608:
  2979     01F1  1C4D               	btfss	___fladd@grs,0
  2980     01F2  29F4               	goto	u173_21
  2981     01F3  29F5               	goto	u173_20
  2982     01F4                     u173_21:
  2983     01F4  29F8               	goto	i1l1672
  2984     01F5                     u173_20:
  2985     01F5                     i1l1670:
  2986     01F5  1403               	setc
  2987     01F6  0DCD               	rlf	___fladd@grs,f
  2988     01F7  29FA               	goto	i1l1674
  2989     01F8                     i1l1672:
  2990     01F8  1003               	clrc
  2991     01F9  0DCD               	rlf	___fladd@grs,f
  2992     01FA                     i1l1674:
  2993     01FA  084C               	movf	___fladd@bexp,w
  2994     01FB  1903               	btfsc	3,2
  2995     01FC  29FE               	goto	u174_21
  2996     01FD  29FF               	goto	u174_20
  2997     01FE                     u174_21:
  2998     01FE  2A01               	goto	i1l1678
  2999     01FF                     u174_20:
  3000     01FF                     i1l1676:
  3001     01FF  3001               	movlw	1
  3002     0200  02CC               	subwf	___fladd@bexp,f
  3003     0201                     i1l1678:
  3004     0201  1FBC               	btfss	___fladd@b+2,7
  3005     0202  2A04               	goto	u175_21
  3006     0203  2A05               	goto	u175_20
  3007     0204                     u175_21:
  3008     0204  29E3               	goto	i1l1664
  3009     0205                     u175_20:
  3010     0205                     i1l1680:
  3011     0205  01CB               	clrf	___fladd@aexp
  3012     0206                     i1l1682:
  3013     0206  1FCD               	btfss	___fladd@grs,7
  3014     0207  2A09               	goto	u176_21
  3015     0208  2A0A               	goto	u176_20
  3016     0209                     u176_21:
  3017     0209  2A18               	goto	i1l1690
  3018     020A                     u176_20:
  3019     020A                     i1l1684:
  3020     020A  084D               	movf	___fladd@grs,w
  3021     020B  397F               	andlw	127
  3022     020C  1903               	btfsc	3,2
  3023     020D  2A0F               	goto	u177_21
  3024     020E  2A10               	goto	u177_20
  3025     020F                     u177_21:
  3026     020F  2A13               	goto	i1l614
  3027     0210                     u177_20:
  3028     0210                     i1l1686:
  3029     0210  01CB               	clrf	___fladd@aexp
  3030     0211  0ACB               	incf	___fladd@aexp,f
  3031     0212  2A18               	goto	i1l1690
  3032     0213                     i1l614:
  3033     0213  1C3A               	btfss	___fladd@b,0
  3034     0214  2A16               	goto	u178_21
  3035     0215  2A17               	goto	u178_20
  3036     0216                     u178_21:
  3037     0216  2A18               	goto	i1l1690
  3038     0217                     u178_20:
  3039     0217  2A10               	goto	i1l1686
  3040     0218                     i1l1690:
  3041     0218  084B               	movf	___fladd@aexp,w
  3042     0219  1903               	btfsc	3,2
  3043     021A  2A1C               	goto	u179_21
  3044     021B  2A1D               	goto	u179_20
  3045     021C                     u179_21:
  3046     021C  2A51               	goto	i1l617
  3047     021D                     u179_20:
  3048     021D                     i1l1692:
  3049     021D  3001               	movlw	1
  3050     021E  07BA               	addwf	___fladd@b,f
  3051     021F  3000               	movlw	0
  3052     0220  1803               	skipnc
  3053     0221  3001               	movlw	1
  3054     0222  07BB               	addwf	___fladd@b+1,f
  3055     0223  3000               	movlw	0
  3056     0224  1803               	skipnc
  3057     0225  3001               	movlw	1
  3058     0226  07BC               	addwf	___fladd@b+2,f
  3059     0227  3000               	movlw	0
  3060     0228  1803               	skipnc
  3061     0229  3001               	movlw	1
  3062     022A  07BD               	addwf	___fladd@b+3,f
  3063     022B                     i1l1694:
  3064     022B  1C3D               	btfss	___fladd@b+3,0
  3065     022C  2A2E               	goto	u180_21
  3066     022D  2A2F               	goto	u180_20
  3067     022E                     u180_21:
  3068     022E  2A51               	goto	i1l617
  3069     022F                     u180_20:
  3070     022F                     i1l1696:
  3071     022F  083A               	movf	___fladd@b,w
  3072     0230  00C2               	movwf	??___fladd
  3073     0231  083B               	movf	___fladd@b+1,w
  3074     0232  00C3               	movwf	??___fladd+1
  3075     0233  083C               	movf	___fladd@b+2,w
  3076     0234  00C4               	movwf	??___fladd+2
  3077     0235  083D               	movf	___fladd@b+3,w
  3078     0236  00C5               	movwf	??___fladd+3
  3079     0237  3001               	movlw	1
  3080     0238  00C6               	movwf	??___fladd+4
  3081     0239                     u181_25:
  3082     0239  0D45               	rlf	??___fladd+3,w
  3083     023A  0CC5               	rrf	??___fladd+3,f
  3084     023B  0CC4               	rrf	??___fladd+2,f
  3085     023C  0CC3               	rrf	??___fladd+1,f
  3086     023D  0CC2               	rrf	??___fladd,f
  3087     023E                     u181_20:
  3088     023E  0BC6               	decfsz	??___fladd+4,f
  3089     023F  2A39               	goto	u181_25
  3090     0240  0845               	movf	??___fladd+3,w
  3091     0241  00BD               	movwf	___fladd@b+3
  3092     0242  0844               	movf	??___fladd+2,w
  3093     0243  00BC               	movwf	___fladd@b+2
  3094     0244  0843               	movf	??___fladd+1,w
  3095     0245  00BB               	movwf	___fladd@b+1
  3096     0246  0842               	movf	??___fladd,w
  3097     0247  00BA               	movwf	___fladd@b
  3098     0248  0A4C               	incf	___fladd@bexp,w
  3099     0249  1903               	btfsc	3,2
  3100     024A  2A4C               	goto	u182_21
  3101     024B  2A4D               	goto	u182_20
  3102     024C                     u182_21:
  3103     024C  2A51               	goto	i1l617
  3104     024D                     u182_20:
  3105     024D                     i1l1698:
  3106     024D  3001               	movlw	1
  3107     024E  00C2               	movwf	??___fladd
  3108     024F  0842               	movf	??___fladd,w
  3109     0250  07CC               	addwf	___fladd@bexp,f
  3110     0251                     i1l617:
  3111     0251  0A4C               	incf	___fladd@bexp,w
  3112     0252  1903               	btfsc	3,2
  3113     0253  2A55               	goto	u183_21
  3114     0254  2A56               	goto	u183_20
  3115     0255                     u183_21:
  3116     0255  2A5B               	goto	i1l1702
  3117     0256                     u183_20:
  3118     0256                     i1l1700:
  3119     0256  084C               	movf	___fladd@bexp,w
  3120     0257  1D03               	btfss	3,2
  3121     0258  2A5A               	goto	u184_21
  3122     0259  2A5B               	goto	u184_20
  3123     025A                     u184_21:
  3124     025A  2A69               	goto	i1l1708
  3125     025B                     u184_20:
  3126     025B                     i1l1702:
  3127     025B  3000               	movlw	0
  3128     025C  00BD               	movwf	___fladd@b+3
  3129     025D  3000               	movlw	0
  3130     025E  00BC               	movwf	___fladd@b+2
  3131     025F  3000               	movlw	0
  3132     0260  00BB               	movwf	___fladd@b+1
  3133     0261  3000               	movlw	0
  3134     0262  00BA               	movwf	___fladd@b
  3135     0263                     i1l1704:
  3136     0263  084C               	movf	___fladd@bexp,w
  3137     0264  1D03               	btfss	3,2
  3138     0265  2A67               	goto	u185_21
  3139     0266  2A68               	goto	u185_20
  3140     0267                     u185_21:
  3141     0267  2A69               	goto	i1l1708
  3142     0268                     u185_20:
  3143     0268                     i1l1706:
  3144     0268  01CA               	clrf	___fladd@signs
  3145     0269                     i1l1708:
  3146     0269  1C4C               	btfss	___fladd@bexp,0
  3147     026A  2A6C               	goto	u186_21
  3148     026B  2A6D               	goto	u186_20
  3149     026C                     u186_21:
  3150     026C  2A6F               	goto	i1l1712
  3151     026D                     u186_20:
  3152     026D                     i1l1710:
  3153     026D  17BC               	bsf	___fladd@b+2,7
  3154     026E  2A73               	goto	i1l625
  3155     026F                     i1l1712:
  3156     026F  307F               	movlw	127
  3157     0270  00C2               	movwf	??___fladd
  3158     0271  0842               	movf	??___fladd,w
  3159     0272  05BC               	andwf	___fladd@b+2,f
  3160     0273                     i1l625:
  3161     0273  084C               	movf	___fladd@bexp,w
  3162     0274  00C2               	movwf	??___fladd
  3163     0275  1003               	clrc
  3164     0276  0C42               	rrf	??___fladd,w
  3165     0277  00BD               	movwf	___fladd@b+3
  3166     0278                     i1l1714:
  3167     0278  1FCA               	btfss	___fladd@signs,7
  3168     0279  2A7B               	goto	u187_21
  3169     027A  2A7C               	goto	u187_20
  3170     027B                     u187_21:
  3171     027B  2A7D               	goto	i1l626
  3172     027C                     u187_20:
  3173     027C                     i1l1716:
  3174     027C  17BD               	bsf	___fladd@b+3,7
  3175     027D                     i1l626:
  3176     027D                     i1l596:
  3177     027D  0008               	return
  3178     027E                     __end_of___fladd:
  3179                           
  3180                           	psect	text8
  3181     076C                     __ptext8:	
  3182 ;; *************** function _DHT11_Start *****************
  3183 ;; Defined at:
  3184 ;;		line 11 in file "DHT11.c"
  3185 ;; Parameters:    Size  Location     Type
  3186 ;;		None
  3187 ;; Auto vars:     Size  Location     Type
  3188 ;;		None
  3189 ;; Return value:  Size  Location     Type
  3190 ;;                  1    wreg      void 
  3191 ;; Registers used:
  3192 ;;		wreg
  3193 ;; Tracked objects:
  3194 ;;		On entry : 0/0
  3195 ;;		On exit  : 0/0
  3196 ;;		Unchanged: 0/0
  3197 ;; Data sizes:     COMMON   BANK0   BANK1   BANK3   BANK2
  3198 ;;      Params:         0       0       0       0       0
  3199 ;;      Locals:         0       0       0       0       0
  3200 ;;      Temps:          2       0       0       0       0
  3201 ;;      Totals:         2       0       0       0       0
  3202 ;;Total ram usage:        2 bytes
  3203 ;; Hardware stack levels used: 1
  3204 ;; This function calls:
  3205 ;;		Nothing
  3206 ;; This function is called by:
  3207 ;;		_readTemp
  3208 ;; This function uses a non-reentrant model
  3209 ;;
  3210                           
  3211     076C                     _DHT11_Start:	
  3212                           ;psect for function _DHT11_Start
  3213                           
  3214     076C                     i1l1454:	
  3215                           ;incstack = 0
  3216                           ; Regs used in _DHT11_Start: [wreg]
  3217                           
  3218                           
  3219                           ;DHT11.c: 12:     TRISDbits.TRISD0 = 0;
  3220     076C  1683               	bsf	3,5	;RP0=1, select bank1
  3221     076D  1303               	bcf	3,6	;RP1=0, select bank1
  3222     076E  1008               	bcf	8,0	;volatile
  3223                           
  3224                           ;DHT11.c: 13:     PORTDbits.RD0 = 0;
  3225     076F  1283               	bcf	3,5	;RP0=0, select bank0
  3226     0770  1303               	bcf	3,6	;RP1=0, select bank0
  3227     0771  1008               	bcf	8,0	;volatile
  3228     0772                     i1l1456:
  3229                           
  3230                           ;DHT11.c: 14:     _delay((unsigned long)((25)*(8000000/4000.0)));
  3231     0772  3041               	movlw	65
  3232     0773  00F1               	movwf	??_DHT11_Start+1
  3233     0774  30EE               	movlw	238
  3234     0775  00F0               	movwf	??_DHT11_Start
  3235     0776                     u255_27:
  3236     0776  0BF0               	decfsz	??_DHT11_Start,f
  3237     0777  2F76               	goto	u255_27
  3238     0778  0BF1               	decfsz	??_DHT11_Start+1,f
  3239     0779  2F76               	goto	u255_27
  3240     077A  0000               	nop
  3241     077B                     i1l1458:
  3242                           
  3243                           ;DHT11.c: 15:     PORTDbits.RD0 = 1;
  3244     077B  1283               	bcf	3,5	;RP0=0, select bank0
  3245     077C  1303               	bcf	3,6	;RP1=0, select bank0
  3246     077D  1408               	bsf	8,0	;volatile
  3247                           
  3248                           ;DHT11.c: 16:     _delay((unsigned long)((25)*(8000000/4000000.0)));
  3249     077E  3010               	movlw	16
  3250     077F  00F0               	movwf	??_DHT11_Start
  3251     0780                     u256_27:
  3252     0780  0BF0               	decfsz	??_DHT11_Start,f
  3253     0781  2F80               	goto	u256_27
  3254     0782  0000               	nop
  3255     0783                     i1l1460:
  3256                           
  3257                           ;DHT11.c: 17:     TRISDbits.TRISD0 = 1;
  3258     0783  1683               	bsf	3,5	;RP0=1, select bank1
  3259     0784  1303               	bcf	3,6	;RP1=0, select bank1
  3260     0785  1408               	bsf	8,0	;volatile
  3261     0786                     i1l166:
  3262     0786  0008               	return
  3263     0787                     __end_of_DHT11_Start:
  3264                           
  3265                           	psect	text9
  3266     06FD                     __ptext9:	
  3267 ;; *************** function _DHT11_Response *****************
  3268 ;; Defined at:
  3269 ;;		line 20 in file "DHT11.c"
  3270 ;; Parameters:    Size  Location     Type
  3271 ;;		None
  3272 ;; Auto vars:     Size  Location     Type
  3273 ;;		None
  3274 ;; Return value:  Size  Location     Type
  3275 ;;                  2    0[COMMON] int 
  3276 ;; Registers used:
  3277 ;;		wreg, status,2
  3278 ;; Tracked objects:
  3279 ;;		On entry : 0/0
  3280 ;;		On exit  : 0/0
  3281 ;;		Unchanged: 0/0
  3282 ;; Data sizes:     COMMON   BANK0   BANK1   BANK3   BANK2
  3283 ;;      Params:         2       0       0       0       0
  3284 ;;      Locals:         0       0       0       0       0
  3285 ;;      Temps:          0       0       0       0       0
  3286 ;;      Totals:         2       0       0       0       0
  3287 ;;Total ram usage:        2 bytes
  3288 ;; Hardware stack levels used: 1
  3289 ;; This function calls:
  3290 ;;		Nothing
  3291 ;; This function is called by:
  3292 ;;		_readTemp
  3293 ;; This function uses a non-reentrant model
  3294 ;;
  3295                           
  3296     06FD                     _DHT11_Response:	
  3297                           ;psect for function _DHT11_Response
  3298                           
  3299     06FD                     i1l1462:	
  3300                           ;incstack = 0
  3301                           ; Regs used in _DHT11_Response: [wreg+status,2]
  3302                           
  3303                           
  3304                           ;DHT11.c: 21:     timeout=0;
  3305     06FD  1283               	bcf	3,5	;RP0=0, select bank0
  3306     06FE  1303               	bcf	3,6	;RP1=0, select bank0
  3307     06FF  01DE               	clrf	_timeout
  3308     0700  01DF               	clrf	_timeout+1
  3309                           
  3310                           ;DHT11.c: 22:     TMR1 = 0;
  3311     0701  018E               	clrf	14	;volatile
  3312     0702  018F               	clrf	15	;volatile
  3313     0703                     i1l1464:
  3314                           
  3315                           ;DHT11.c: 23:     T1CONbits.TMR1ON = 1;
  3316     0703  1410               	bsf	16,0	;volatile
  3317     0704                     i1l169:	
  3318                           ;DHT11.c: 24:     while(!PORTDbits.RD0 && TMR1 < 100);
  3319                           
  3320     0704  1808               	btfsc	8,0	;volatile
  3321     0705  2F07               	goto	u129_21
  3322     0706  2F08               	goto	u129_20
  3323     0707                     u129_21:
  3324     0707  2F11               	goto	i1l1468
  3325     0708                     u129_20:
  3326     0708                     i1l1466:
  3327     0708  3000               	movlw	0
  3328     0709  020F               	subwf	15,w	;volatile
  3329     070A  3064               	movlw	100
  3330     070B  1903               	skipnz
  3331     070C  020E               	subwf	14,w	;volatile
  3332     070D  1C03               	skipc
  3333     070E  2F10               	goto	u130_21
  3334     070F  2F11               	goto	u130_20
  3335     0710                     u130_21:
  3336     0710  2F04               	goto	i1l169
  3337     0711                     u130_20:
  3338     0711                     i1l1468:
  3339                           
  3340                           ;DHT11.c: 25:         if(TMR1 > 99){
  3341     0711  3000               	movlw	0
  3342     0712  020F               	subwf	15,w	;volatile
  3343     0713  3064               	movlw	100
  3344     0714  1903               	skipnz
  3345     0715  020E               	subwf	14,w	;volatile
  3346     0716  1C03               	skipc
  3347     0717  2F19               	goto	u131_21
  3348     0718  2F1A               	goto	u131_20
  3349     0719                     u131_21:
  3350     0719  2F1D               	goto	i1l1476
  3351     071A                     u131_20:
  3352     071A                     i1l1470:
  3353                           
  3354                           ;DHT11.c: 26:             return 0;
  3355     071A  01F0               	clrf	?_DHT11_Response
  3356     071B  01F1               	clrf	?_DHT11_Response+1
  3357     071C  2F3A               	goto	i1l175
  3358     071D                     i1l1476:
  3359                           
  3360                           ;DHT11.c: 29:             TMR1 = 0;
  3361     071D  018E               	clrf	14	;volatile
  3362     071E  018F               	clrf	15	;volatile
  3363     071F                     i1l177:	
  3364                           ;DHT11.c: 30:             while(PORTDbits.RD0 && TMR1 < 100);
  3365                           
  3366     071F  1C08               	btfss	8,0	;volatile
  3367     0720  2F22               	goto	u132_21
  3368     0721  2F23               	goto	u132_20
  3369     0722                     u132_21:
  3370     0722  2F2C               	goto	i1l1480
  3371     0723                     u132_20:
  3372     0723                     i1l1478:
  3373     0723  3000               	movlw	0
  3374     0724  020F               	subwf	15,w	;volatile
  3375     0725  3064               	movlw	100
  3376     0726  1903               	skipnz
  3377     0727  020E               	subwf	14,w	;volatile
  3378     0728  1C03               	skipc
  3379     0729  2F2B               	goto	u133_21
  3380     072A  2F2C               	goto	u133_20
  3381     072B                     u133_21:
  3382     072B  2F1F               	goto	i1l177
  3383     072C                     u133_20:
  3384     072C                     i1l1480:
  3385                           
  3386                           ;DHT11.c: 31:             if(TMR1 > 99){
  3387     072C  3000               	movlw	0
  3388     072D  020F               	subwf	15,w	;volatile
  3389     072E  3064               	movlw	100
  3390     072F  1903               	skipnz
  3391     0730  020E               	subwf	14,w	;volatile
  3392     0731  1C03               	skipc
  3393     0732  2F34               	goto	u134_21
  3394     0733  2F35               	goto	u134_20
  3395     0734                     u134_21:
  3396     0734  2F36               	goto	i1l1488
  3397     0735                     u134_20:
  3398     0735  2F1A               	goto	i1l1470
  3399     0736                     i1l1488:
  3400                           
  3401                           ;DHT11.c: 35:                 return 1;
  3402     0736  3001               	movlw	1
  3403     0737  00F0               	movwf	?_DHT11_Response
  3404     0738  3000               	movlw	0
  3405     0739  00F1               	movwf	?_DHT11_Response+1
  3406     073A                     i1l175:
  3407     073A  0008               	return
  3408     073B                     __end_of_DHT11_Response:
  3409                           
  3410                           	psect	text10
  3411     06AA                     __ptext10:	
  3412 ;; *************** function _DHT11_Read *****************
  3413 ;; Defined at:
  3414 ;;		line 40 in file "DHT11.c"
  3415 ;; Parameters:    Size  Location     Type
  3416 ;;		None
  3417 ;; Auto vars:     Size  Location     Type
  3418 ;;  _data           2    5[COMMON] unsigned int 
  3419 ;;  i               1    7[COMMON] unsigned char 
  3420 ;; Return value:  Size  Location     Type
  3421 ;;                  2    0[COMMON] unsigned int 
  3422 ;; Registers used:
  3423 ;;		wreg, status,2, status,0
  3424 ;; Tracked objects:
  3425 ;;		On entry : 0/0
  3426 ;;		On exit  : 0/0
  3427 ;;		Unchanged: 0/0
  3428 ;; Data sizes:     COMMON   BANK0   BANK1   BANK3   BANK2
  3429 ;;      Params:         2       0       0       0       0
  3430 ;;      Locals:         3       0       0       0       0
  3431 ;;      Temps:          3       0       0       0       0
  3432 ;;      Totals:         8       0       0       0       0
  3433 ;;Total ram usage:        8 bytes
  3434 ;; Hardware stack levels used: 1
  3435 ;; This function calls:
  3436 ;;		Nothing
  3437 ;; This function is called by:
  3438 ;;		_readTemp
  3439 ;; This function uses a non-reentrant model
  3440 ;;
  3441                           
  3442     06AA                     _DHT11_Read:	
  3443                           ;psect for function _DHT11_Read
  3444                           
  3445     06AA                     i1l1492:	
  3446                           ;incstack = 0
  3447                           ; Regs used in _DHT11_Read: [wreg+status,2+status,0]
  3448                           
  3449                           
  3450                           ;DHT11.c: 41:     uint8_t i;;DHT11.c: 42:     unsigned int _data = 0;
  3451     06AA  01F5               	clrf	DHT11_Read@_data
  3452     06AB  01F6               	clrf	DHT11_Read@_data+1
  3453     06AC                     i1l1496:
  3454                           
  3455                           ;DHT11.c: 47:     for(i = 0; i < 8; i++){
  3456     06AC  01F7               	clrf	DHT11_Read@i
  3457     06AD                     i1l1502:
  3458                           
  3459                           ;DHT11.c: 48:         TMR1 = 0;
  3460     06AD  1283               	bcf	3,5	;RP0=0, select bank0
  3461     06AE  1303               	bcf	3,6	;RP1=0, select bank0
  3462     06AF  018E               	clrf	14	;volatile
  3463     06B0  018F               	clrf	15	;volatile
  3464     06B1                     i1l189:	
  3465                           ;DHT11.c: 49:         while(!PORTDbits.RD0);
  3466                           
  3467     06B1  1C08               	btfss	8,0	;volatile
  3468     06B2  2EB4               	goto	u135_21
  3469     06B3  2EB5               	goto	u135_20
  3470     06B4                     u135_21:
  3471     06B4  2EB1               	goto	i1l189
  3472     06B5                     u135_20:
  3473     06B5                     i1l1504:
  3474                           
  3475                           ;DHT11.c: 50:         if(TMR1 > 100){
  3476     06B5  3000               	movlw	0
  3477     06B6  020F               	subwf	15,w	;volatile
  3478     06B7  3065               	movlw	101
  3479     06B8  1903               	skipnz
  3480     06B9  020E               	subwf	14,w	;volatile
  3481     06BA  1C03               	skipc
  3482     06BB  2EBD               	goto	u136_21
  3483     06BC  2EBE               	goto	u136_20
  3484     06BD                     u136_21:
  3485     06BD  2EC3               	goto	i1l1508
  3486     06BE                     u136_20:
  3487     06BE                     i1l1506:
  3488                           
  3489                           ;DHT11.c: 51:             timeout = 1;
  3490     06BE  3001               	movlw	1
  3491     06BF  00DE               	movwf	_timeout
  3492     06C0  3000               	movlw	0
  3493     06C1  00DF               	movwf	_timeout+1
  3494                           
  3495                           ;DHT11.c: 52:             break;
  3496     06C2  2EF8               	goto	i1l1520
  3497     06C3                     i1l1508:
  3498                           
  3499                           ;DHT11.c: 54:         TMR1 = 0;
  3500     06C3  018E               	clrf	14	;volatile
  3501     06C4  018F               	clrf	15	;volatile
  3502     06C5                     i1l193:	
  3503                           ;DHT11.c: 55:         while(PORTDbits.RD0);
  3504                           
  3505     06C5  1808               	btfsc	8,0	;volatile
  3506     06C6  2EC8               	goto	u137_21
  3507     06C7  2EC9               	goto	u137_20
  3508     06C8                     u137_21:
  3509     06C8  2EC5               	goto	i1l193
  3510     06C9                     u137_20:
  3511     06C9                     i1l1510:
  3512                           
  3513                           ;DHT11.c: 56:         if(TMR1 > 100){
  3514     06C9  3000               	movlw	0
  3515     06CA  020F               	subwf	15,w	;volatile
  3516     06CB  3065               	movlw	101
  3517     06CC  1903               	skipnz
  3518     06CD  020E               	subwf	14,w	;volatile
  3519     06CE  1C03               	skipc
  3520     06CF  2ED1               	goto	u138_21
  3521     06D0  2ED2               	goto	u138_20
  3522     06D1                     u138_21:
  3523     06D1  2ED3               	goto	i1l1514
  3524     06D2                     u138_20:
  3525     06D2  2EBE               	goto	i1l1506
  3526     06D3                     i1l1514:
  3527                           
  3528                           ;DHT11.c: 60:         if(TMR1 > 50){
  3529     06D3  3000               	movlw	0
  3530     06D4  020F               	subwf	15,w	;volatile
  3531     06D5  3033               	movlw	51
  3532     06D6  1903               	skipnz
  3533     06D7  020E               	subwf	14,w	;volatile
  3534     06D8  1C03               	skipc
  3535     06D9  2EDB               	goto	u139_21
  3536     06DA  2EDC               	goto	u139_20
  3537     06DB                     u139_21:
  3538     06DB  2EEE               	goto	i1l197
  3539     06DC                     u139_20:
  3540     06DC                     i1l1516:
  3541                           
  3542                           ;DHT11.c: 62:             _data|= (1 << (7 - i));
  3543     06DC  0877               	movf	DHT11_Read@i,w
  3544     06DD  3C07               	sublw	7
  3545     06DE  00F2               	movwf	??_DHT11_Read
  3546     06DF  0AF2               	incf	??_DHT11_Read,f
  3547     06E0  3001               	movlw	1
  3548     06E1  00F3               	movwf	??_DHT11_Read+1
  3549     06E2  3000               	movlw	0
  3550     06E3  00F4               	movwf	??_DHT11_Read+2
  3551     06E4  2EE8               	goto	u140_24
  3552     06E5                     u140_25:
  3553     06E5  1003               	clrc
  3554     06E6  0DF3               	rlf	??_DHT11_Read+1,f
  3555     06E7  0DF4               	rlf	??_DHT11_Read+2,f
  3556     06E8                     u140_24:
  3557     06E8  0BF2               	decfsz	??_DHT11_Read,f
  3558     06E9  2EE5               	goto	u140_25
  3559     06EA  0873               	movf	??_DHT11_Read+1,w
  3560     06EB  04F5               	iorwf	DHT11_Read@_data,f
  3561     06EC  0874               	movf	??_DHT11_Read+2,w
  3562     06ED  04F6               	iorwf	DHT11_Read@_data+1,f
  3563     06EE                     i1l197:	
  3564                           ;DHT11.c: 63:         }
  3565                           
  3566                           
  3567                           ;DHT11.c: 64:   }
  3568     06EE  3001               	movlw	1
  3569     06EF  00F2               	movwf	??_DHT11_Read
  3570     06F0  0872               	movf	??_DHT11_Read,w
  3571     06F1  07F7               	addwf	DHT11_Read@i,f
  3572     06F2                     i1l1518:
  3573     06F2  3008               	movlw	8
  3574     06F3  0277               	subwf	DHT11_Read@i,w
  3575     06F4  1C03               	skipc
  3576     06F5  2EF7               	goto	u141_21
  3577     06F6  2EF8               	goto	u141_20
  3578     06F7                     u141_21:
  3579     06F7  2EAD               	goto	i1l1502
  3580     06F8                     u141_20:
  3581     06F8                     i1l1520:
  3582                           
  3583                           ;DHT11.c: 65:   return _data;
  3584     06F8  0876               	movf	DHT11_Read@_data+1,w
  3585     06F9  00F1               	movwf	?_DHT11_Read+1
  3586     06FA  0875               	movf	DHT11_Read@_data,w
  3587     06FB  00F0               	movwf	?_DHT11_Read
  3588     06FC                     i1l198:
  3589     06FC  0008               	return
  3590     06FD                     __end_of_DHT11_Read:
  3591                           
  3592                           	psect	text11
  3593     0634                     __ptext11:	
  3594 ;; *************** function ___fltol *****************
  3595 ;; Defined at:
  3596 ;;		line 43 in file "C:\Program Files\Microchip\xc8\v2.40\pic\sources\c90\common\fltol.c"
  3597 ;; Parameters:    Size  Location     Type
  3598 ;;  f1              4    0[COMMON] unsigned int 
  3599 ;; Auto vars:     Size  Location     Type
  3600 ;;  exp1            1    9[COMMON] unsigned char 
  3601 ;;  sign1           1    8[COMMON] unsigned char 
  3602 ;; Return value:  Size  Location     Type
  3603 ;;                  4    0[COMMON] long 
  3604 ;; Registers used:
  3605 ;;		wreg, status,2, status,0
  3606 ;; Tracked objects:
  3607 ;;		On entry : 0/0
  3608 ;;		On exit  : 0/0
  3609 ;;		Unchanged: 0/0
  3610 ;; Data sizes:     COMMON   BANK0   BANK1   BANK3   BANK2
  3611 ;;      Params:         4       0       0       0       0
  3612 ;;      Locals:         2       0       0       0       0
  3613 ;;      Temps:          4       0       0       0       0
  3614 ;;      Totals:        10       0       0       0       0
  3615 ;;Total ram usage:       10 bytes
  3616 ;; Hardware stack levels used: 1
  3617 ;; This function calls:
  3618 ;;		Nothing
  3619 ;; This function is called by:
  3620 ;;		_isr
  3621 ;; This function uses a non-reentrant model
  3622 ;;
  3623                           
  3624     0634                     ___fltol:	
  3625                           ;psect for function ___fltol
  3626                           
  3627     0634                     i1l1950:	
  3628                           ;incstack = 0
  3629                           ; Regs used in ___fltol: [wreg+status,2+status,0]
  3630                           
  3631     0634  1003               	clrc
  3632     0635  0D72               	rlf	___fltol@f1+2,w
  3633     0636  0D73               	rlf	___fltol@f1+3,w
  3634     0637  00F9               	movwf	___fltol@exp1
  3635     0638  0879               	movf	___fltol@exp1,w
  3636     0639  1D03               	btfss	3,2
  3637     063A  2E3C               	goto	u232_21
  3638     063B  2E3D               	goto	u232_20
  3639     063C                     u232_21:
  3640     063C  2E46               	goto	i1l1956
  3641     063D                     u232_20:
  3642     063D                     i1l1952:
  3643     063D  3000               	movlw	0
  3644     063E  00F3               	movwf	?___fltol+3
  3645     063F  3000               	movlw	0
  3646     0640  00F2               	movwf	?___fltol+2
  3647     0641  3000               	movlw	0
  3648     0642  00F1               	movwf	?___fltol+1
  3649     0643  3000               	movlw	0
  3650     0644  00F0               	movwf	?___fltol
  3651     0645  2EA9               	goto	i1l476
  3652     0646                     i1l1956:
  3653     0646  0870               	movf	___fltol@f1,w
  3654     0647  00F4               	movwf	??___fltol
  3655     0648  0871               	movf	___fltol@f1+1,w
  3656     0649  00F5               	movwf	??___fltol+1
  3657     064A  0872               	movf	___fltol@f1+2,w
  3658     064B  00F6               	movwf	??___fltol+2
  3659     064C  0873               	movf	___fltol@f1+3,w
  3660     064D  00F7               	movwf	??___fltol+3
  3661     064E  301F               	movlw	31
  3662     064F                     u233_25:
  3663     064F  1003               	clrc
  3664     0650  0CF7               	rrf	??___fltol+3,f
  3665     0651  0CF6               	rrf	??___fltol+2,f
  3666     0652  0CF5               	rrf	??___fltol+1,f
  3667     0653  0CF4               	rrf	??___fltol,f
  3668     0654                     u233_20:
  3669     0654  3EFF               	addlw	-1
  3670     0655  1D03               	skipz
  3671     0656  2E4F               	goto	u233_25
  3672     0657  0874               	movf	??___fltol,w
  3673     0658  00F8               	movwf	___fltol@sign1
  3674     0659                     i1l1958:
  3675     0659  17F2               	bsf	___fltol@f1+2,7
  3676     065A                     i1l1960:
  3677     065A  30FF               	movlw	255
  3678     065B  05F0               	andwf	___fltol@f1,f
  3679     065C  30FF               	movlw	255
  3680     065D  05F1               	andwf	___fltol@f1+1,f
  3681     065E  30FF               	movlw	255
  3682     065F  05F2               	andwf	___fltol@f1+2,f
  3683     0660  3000               	movlw	0
  3684     0661  05F3               	andwf	___fltol@f1+3,f
  3685     0662                     i1l1962:
  3686     0662  3096               	movlw	150
  3687     0663  02F9               	subwf	___fltol@exp1,f
  3688     0664                     i1l1964:
  3689     0664  1FF9               	btfss	___fltol@exp1,7
  3690     0665  2E67               	goto	u234_21
  3691     0666  2E68               	goto	u234_20
  3692     0667                     u234_21:
  3693     0667  2E82               	goto	i1l1974
  3694     0668                     u234_20:
  3695     0668                     i1l1966:
  3696     0668  0879               	movf	___fltol@exp1,w
  3697     0669  3A80               	xorlw	128
  3698     066A  3E97               	addlw	151
  3699     066B  1803               	skipnc
  3700     066C  2E6E               	goto	u235_21
  3701     066D  2E6F               	goto	u235_20
  3702     066E                     u235_21:
  3703     066E  2E70               	goto	i1l1972
  3704     066F                     u235_20:
  3705     066F  2E3D               	goto	i1l1952
  3706     0670                     i1l1972:
  3707     0670  3001               	movlw	1
  3708     0671                     u236_25:
  3709     0671  1003               	clrc
  3710     0672  0CF3               	rrf	___fltol@f1+3,f
  3711     0673  0CF2               	rrf	___fltol@f1+2,f
  3712     0674  0CF1               	rrf	___fltol@f1+1,f
  3713     0675  0CF0               	rrf	___fltol@f1,f
  3714     0676  3EFF               	addlw	-1
  3715     0677  1D03               	skipz
  3716     0678  2E71               	goto	u236_25
  3717     0679  3001               	movlw	1
  3718     067A  00F4               	movwf	??___fltol
  3719     067B  0874               	movf	??___fltol,w
  3720     067C  07F9               	addwf	___fltol@exp1,f
  3721     067D  1D03               	btfss	3,2
  3722     067E  2E80               	goto	u237_21
  3723     067F  2E81               	goto	u237_20
  3724     0680                     u237_21:
  3725     0680  2E70               	goto	i1l1972
  3726     0681                     u237_20:
  3727     0681  2E99               	goto	i1l1982
  3728     0682                     i1l1974:
  3729     0682  3020               	movlw	32
  3730     0683  0279               	subwf	___fltol@exp1,w
  3731     0684  1C03               	skipc
  3732     0685  2E87               	goto	u238_21
  3733     0686  2E88               	goto	u238_20
  3734     0687                     u238_21:
  3735     0687  2E94               	goto	i1l483
  3736     0688                     u238_20:
  3737     0688  2E3D               	goto	i1l1952
  3738     0689                     i1l1980:
  3739     0689  3001               	movlw	1
  3740     068A  00F4               	movwf	??___fltol
  3741     068B                     u239_25:
  3742     068B  1003               	clrc
  3743     068C  0DF0               	rlf	___fltol@f1,f
  3744     068D  0DF1               	rlf	___fltol@f1+1,f
  3745     068E  0DF2               	rlf	___fltol@f1+2,f
  3746     068F  0DF3               	rlf	___fltol@f1+3,f
  3747     0690  0BF4               	decfsz	??___fltol,f
  3748     0691  2E8B               	goto	u239_25
  3749     0692  3001               	movlw	1
  3750     0693  02F9               	subwf	___fltol@exp1,f
  3751     0694                     i1l483:
  3752     0694  0879               	movf	___fltol@exp1,w
  3753     0695  1D03               	btfss	3,2
  3754     0696  2E98               	goto	u240_21
  3755     0697  2E99               	goto	u240_20
  3756     0698                     u240_21:
  3757     0698  2E89               	goto	i1l1980
  3758     0699                     u240_20:
  3759     0699                     i1l1982:
  3760     0699  0878               	movf	___fltol@sign1,w
  3761     069A  1903               	btfsc	3,2
  3762     069B  2E9D               	goto	u241_21
  3763     069C  2E9E               	goto	u241_20
  3764     069D                     u241_21:
  3765     069D  2EA9               	goto	i1l486
  3766     069E                     u241_20:
  3767     069E                     i1l1984:
  3768     069E  09F0               	comf	___fltol@f1,f
  3769     069F  09F1               	comf	___fltol@f1+1,f
  3770     06A0  09F2               	comf	___fltol@f1+2,f
  3771     06A1  09F3               	comf	___fltol@f1+3,f
  3772     06A2  0AF0               	incf	___fltol@f1,f
  3773     06A3  1903               	skipnz
  3774     06A4  0AF1               	incf	___fltol@f1+1,f
  3775     06A5  1903               	skipnz
  3776     06A6  0AF2               	incf	___fltol@f1+2,f
  3777     06A7  1903               	skipnz
  3778     06A8  0AF3               	incf	___fltol@f1+3,f
  3779     06A9                     i1l486:
  3780     06A9                     i1l476:
  3781     06A9  0008               	return
  3782     06AA                     __end_of___fltol:
  3783     007E                     btemp	set	126	;btemp
  3784     007E                     wtemp0	set	126
  3785                           
  3786                           	psect	idloc
  3787                           
  3788                           ;Config register IDLOC0 @ 0x2000
  3789                           ;	unspecified, using default values
  3790     2000                     	org	8192
  3791     2000  3FFF               	dw	16383
  3792                           
  3793                           ;Config register IDLOC1 @ 0x2001
  3794                           ;	unspecified, using default values
  3795     2001                     	org	8193
  3796     2001  3FFF               	dw	16383
  3797                           
  3798                           ;Config register IDLOC2 @ 0x2002
  3799                           ;	unspecified, using default values
  3800     2002                     	org	8194
  3801     2002  3FFF               	dw	16383
  3802                           
  3803                           ;Config register IDLOC3 @ 0x2003
  3804                           ;	unspecified, using default values
  3805     2003                     	org	8195
  3806     2003  3FFF               	dw	16383
  3807                           
  3808                           	psect	config
  3809                           
  3810                           ;Config register CONFIG1 @ 0x2007
  3811                           ;	Oscillator Selection bits
  3812                           ;	FOSC = INTRC_NOCLKOUT, INTOSCIO oscillator: I/O function on RA6/OSC2/CLKOUT pin, I/O f
      +                          unction on RA7/OSC1/CLKIN
  3813                           ;	Watchdog Timer Enable bit
  3814                           ;	WDTE = OFF, WDT disabled and can be enabled by SWDTEN bit of the WDTCON register
  3815                           ;	Power-up Timer Enable bit
  3816                           ;	PWRTE = OFF, PWRT disabled
  3817                           ;	RE3/MCLR pin function select bit
  3818                           ;	MCLRE = OFF, RE3/MCLR pin function is digital input, MCLR internally tied to VDD
  3819                           ;	Code Protection bit
  3820                           ;	CP = OFF, Program memory code protection is disabled
  3821                           ;	Data Code Protection bit
  3822                           ;	CPD = OFF, Data memory code protection is disabled
  3823                           ;	Brown Out Reset Selection bits
  3824                           ;	BOREN = OFF, BOR disabled
  3825                           ;	Internal External Switchover bit
  3826                           ;	IESO = OFF, Internal/External Switchover mode is disabled
  3827                           ;	Fail-Safe Clock Monitor Enabled bit
  3828                           ;	FCMEN = OFF, Fail-Safe Clock Monitor is disabled
  3829                           ;	Low Voltage Programming Enable bit
  3830                           ;	LVP = OFF, RB3 pin has digital I/O, HV on MCLR must be used for programming
  3831                           ;	In-Circuit Debugger Mode bit
  3832                           ;	DEBUG = 0x1, unprogramme  3833     2007                     	org	8199
  3834     2007  20D4               	dw	8404
  3835                           
  3836                           ;Config register CONFIG2 @ 0x2008
  3837                           ;	Brown-out Reset Selection bit
  3838                           ;	BOR4V = BOR40V, Brown-out Reset set to 4.0V
  3839                           ;	Flash Program Memory Self Write Enable bits
  3840                           ;	WRT = OFF, Write protection off
  3841     2008                     	org	8200
  3842     2008  3FFF               	dw	16383

Data Sizes:
    Strings     0
    Constant    0
    Data        0
    BSS         13
    Persistent  0
    Stack       0

Auto Spaces:
    Space          Size  Autos    Used
    COMMON           14     14      14
    BANK0            80     58      71
    BANK1            80      1       1
    BANK3            96      0       0
    BANK2            96      0       0

Pointer List with Targets:

    None.

Critical Paths under _main in COMMON

    None.

Critical Paths under _isr in COMMON

    _readTemp->___xxtofl
    ___fldiv->___xxtofl
    ___fladd->___xxtofl

Critical Paths under _main in BANK0

    None.

Critical Paths under _isr in BANK0

    _isr->_readTemp
    _readTemp->___fladd
    ___fladd->___fldiv

Critical Paths under _main in BANK1

    _setup->_I2C_Slave_Init

Critical Paths under _isr in BANK1

    None.

Critical Paths under _main in BANK3

    None.

Critical Paths under _isr in BANK3

    None.

Critical Paths under _main in BANK2

    None.

Critical Paths under _isr in BANK2

    None.

Call Graph Tables:

 ---------------------------------------------------------------------------------
 (Depth) Function   	        Calls       Base Space   Used Autos Params    Refs
 ---------------------------------------------------------------------------------
 (0) _main                                                 0     0      0      22
                              _setup
 ---------------------------------------------------------------------------------
 (1) _setup                                                0     0      0      22
                     _I2C_Slave_Init
 ---------------------------------------------------------------------------------
 (2) _I2C_Slave_Init                                       1     1      0      22
                                              0 BANK1      1     1      0
 ---------------------------------------------------------------------------------
 Estimated maximum stack depth 2
 ---------------------------------------------------------------------------------
 (Depth) Function   	        Calls       Base Space   Used Autos Params    Refs
 ---------------------------------------------------------------------------------
 (3) _isr                                                  4     4      0    4406
                                             54 BANK0      4     4      0
                            ___fltol
                           _readTemp
 ---------------------------------------------------------------------------------
 (4) _readTemp                                             8     8      0    4101
                                             46 BANK0      8     8      0
                         _DHT11_Read
                     _DHT11_Response
                        _DHT11_Start
                            ___fladd
                            ___fldiv
                           ___xxtofl
 ---------------------------------------------------------------------------------
 (5) ___xxtofl                                            14    10      4     474
                                              0 COMMON    14    10      4
 ---------------------------------------------------------------------------------
 (5) ___fldiv                                             26    18      8    1273
                                              0 BANK0     26    18      8
                           ___xxtofl (ARG)
 ---------------------------------------------------------------------------------
 (5) ___fladd                                             20    12      8    2262
                                             26 BANK0     20    12      8
                            ___fldiv (ARG)
                           ___xxtofl (ARG)
 ---------------------------------------------------------------------------------
 (5) _DHT11_Start                                          2     2      0       0
                                              0 COMMON     2     2      0
 ---------------------------------------------------------------------------------
 (5) _DHT11_Response                                       2     0      2       0
                                              0 COMMON     2     0      2
 ---------------------------------------------------------------------------------
 (5) _DHT11_Read                                           8     6      2      92
                                              0 COMMON     8     6      2
 ---------------------------------------------------------------------------------
 (4) ___fltol                                             10     6      4     305
                                              0 COMMON    10     6      4
 ---------------------------------------------------------------------------------
 Estimated maximum stack depth 5
 ---------------------------------------------------------------------------------

 Call Graph Graphs:

 _main (ROOT)
   _setup
     _I2C_Slave_Init

 _isr (ROOT)
   ___fltol
   _readTemp
     _DHT11_Read
     _DHT11_Response
     _DHT11_Start
     ___fladd
       ___fldiv (ARG)
         ___xxtofl (ARG)
       ___xxtofl (ARG)
     ___fldiv
     ___xxtofl

 Address spaces:
Name               Size   Autos  Total    Cost      Usage
BITCOMMON            E      0       0       0        0.0%
EEDATA             100      0       0       0        0.0%
NULL                 0      0       0       0        0.0%
CODE                 0      0       0       0        0.0%
COMMON               E      E       E       1      100.0%
BITSFR0              0      0       0       1        0.0%
SFR0                 0      0       0       1        0.0%
BITSFR1              0      0       0       2        0.0%
SFR1                 0      0       0       2        0.0%
STACK                0      0       0       2        0.0%
ABS                  0      0      56       3        0.0%
BITBANK0            50      0       0       4        0.0%
BITSFR3              0      0       0       4        0.0%
SFR3                 0      0       0       4        0.0%
BANK0               50     3A      47       5       88.8%
BITSFR2              0      0       0       5        0.0%
SFR2                 0      0       0       5        0.0%
BITBANK1            50      0       0       6        0.0%
BANK1               50      1       1       7        1.2%
BITBANK3            60      0       0       8        0.0%
BANK3               60      0       0       9        0.0%
BITBANK2            60      0       0      10        0.0%
BANK2               60      0       0      11        0.0%
DATA                 0      0      56      12        0.0%


Microchip Technology PIC Macro Assembler V2.40 build 20220703182018 
Symbol Table                                                                                   Tue Mar 07 06:18:10 2023

           ___fldiv@aexp 0039             ___fldiv@bexp 0038                        _z 0060  
           ___fldiv@sign 0031              _SSPSTATbits 0094                       l90 07A6  
                     l91 07A6                       l96 076B                      l151 07A0  
                    _GIE 005F                      _isr 05BA             ___fltol@exp1 0079  
                   l2028 07A1                     l1440 078A                     l1450 079A  
                   l1442 0796                     l1452 079D                     l1444 0797  
                   l1446 0798                     l1448 0799                     l1920 074B  
                   l1930 0752                     l1922 074C                     l1940 075C  
                   l1932 0755                     l1924 074D                     l1942 075D  
                   l1934 0756                     l1926 0750                     l1918 073B  
                   l1944 0760                     l1936 0757                     l1928 0751  
                   l1946 0764                     l1938 0758                     l1948 0765  
                   ?_isr 0070                     _PEIE 005E                     i1l71 0626  
                   i1l81 061D                     i1l75 05EE                     i1l76 05DC  
                   i1l85 062B                     i1l79 0623                     _TMR1 000E  
                   _main 07A1                     btemp 007E                     start 0010  
        ___fldiv@new_exp 0032                    ??_isr 0056         ??_DHT11_Response 0072  
          ___fltol@sign1 0078          __end_of___fladd 027E                    ?_main 0070  
        __end_of___fldiv 0451          __end_of___fltol 06AA                    _ANSEL 0188  
                  i1l100 05B9                    i1l166 0786                    i1l175 073A  
                  i1l193 06C5                    i1l177 071F                    i1l169 0704  
                  i1l604 01CD                    i1l197 06EE                    i1l189 06B1  
                  i1l198 06FC                    i1l614 0213                    i1l608 01F1  
                  i1l625 0273                    i1l617 0251                    i1l641 0450  
                  i1l626 027D                    i1l483 0694                    i1l723 0473  
                  i1l476 06A9                    i1l661 0438                    i1l725 0508  
                  i1l486 06A9                    i1l583 0081                    i1l663 0446  
                  i1l655 03C6                    i1l639 02D4                    i1l736 04D2  
                  i1l737 04DE                    i1l729 04B6                    i1l587 0104  
                  i1l596 027D                    i1l589 00DD                    _PORTA 0005  
                  _PORTB 0006                    _PORTD 0008                    _PORTE 0009  
                  _TRISA 0085                    _TRISB 0086                    _TRISD 0088  
                  _SSPIE 0463                    _TRISE 0089                    _SSPIF 0063  
                  _check 0061                    _setup 073B                    pclath 000A  
                  status 0003                    wtemp0 007E          __initialization 0013  
           __end_of_main 07AA                   ??_main 00A1                   ?_setup 0070  
                 _ANSELH 0189                   i1l2000 05CC                   i1l2010 05E2  
                 i1l2002 05D2                   i1l2020 0602                   i1l2012 05F2  
                 i1l2004 05D6                   i1l2022 0615                   i1l2014 05F6  
                 i1l2006 05DA                   i1l2024 0616                   i1l2016 05FA  
                 i1l2008 05DB                   i1l2026 062A                   i1l2018 05FD  
                 i1l1510 06C9                   i1l1502 06AD                   i1l1520 06F8  
                 i1l1504 06B5                   i1l1600 00AB                   i1l1514 06D3  
                 i1l1506 06BE                   i1l1610 00E8                   i1l1602 00AD  
                 i1l1530 0033                   i1l1516 06DC                   i1l1508 06C3  
                 i1l1460 0783                   i1l1700 0256                   i1l1612 00EA  
                 i1l1620 00FC                   i1l1604 00AE                   i1l1540 0047  
                 i1l1532 0034                   i1l1524 0026                   u200_25 034D  
                 i1l1518 06F2                   i1l1470 071A                   i1l1462 06FD  
                 i1l1454 076C                   i1l1710 026D                   i1l1702 025B  
                 i1l1630 012D                   i1l1622 0108                   i1l1614 00EE  
                 i1l1606 00C5                   i1l1550 005B                   i1l1534 0039  
                 i1l1542 0049                   i1l1526 002B                   i1l1480 072C  
                 i1l1464 0703                   i1l1456 0772                   i1l1712 026F  
                 i1l1704 0263                   i1l1640 0142                   i1l1632 0131  
                 i1l1624 010D                   i1l1616 00EF                   i1l1608 00E1  
                 i1l1560 006E                   i1l1552 005F                   i1l1544 0051  
                 i1l1536 003E                   i1l1528 002F                   u201_20 0366  
                 i1l1800 0379                   i1l1720 0283                   u201_21 0365  
                 i1l1466 0708                   i1l1458 077B                   i1l1714 0278  
                 i1l1706 0268                   i1l1650 01A5                   i1l1642 0143  
                 i1l1634 0135                   i1l1618 00F8                   i1l1570 008B  
                 i1l1562 0076                   i1l1554 0063                   i1l1546 0054  
                 i1l1538 0046                   i1l1810 0396                   i1l1802 037F  
                 i1l1730 0296                   i1l1722 0287                   i1l1492 06AA  
                 i1l1476 071D                   i1l1468 0711                   i1l1716 027C  
                 i1l1708 0269                   i1l1660 01DA                   i1l1652 01AB  
                 i1l1644 014C                   i1l1636 013C                   i1l1628 0116  
                 i1l1580 0097                   i1l1572 008F                   i1l1564 0077  
                 i1l1556 0064                   i1l1548 005A                   i1l1820 03AB  
                 i1l1812 0397                   i1l1804 0387                   i1l1740 02AE  
                 i1l1732 029E                   i1l1724 028B                   i1l1900 0500  
                 u201_25 0362                   i1l1478 0723                   i1l1670 01F5  
                 i1l1654 01B0                   i1l1638 013E                   i1l1646 0151  
                 i1l1590 00A1                   i1l1582 0099                   i1l1574 0091  
                 i1l1558 0069                   i1l1566 0079                   i1l1830 03D0  
                 i1l1822 03AF                   i1l1814 03A0                   i1l1806 0389  
                 i1l1750 02C1                   i1l1742 02B2                   i1l1734 029F  
                 i1l1726 028C                   i1l1718 027E                   i1l1910 0526  
                 i1l1496 06AC                   i1l1488 0736                   u130_20 0711  
                 i1l1672 01F8                   i1l1664 01E3                   i1l1648 0167  
                 i1l1656 01BF                   i1l1680 0205                   i1l1592 00A3  
                 i1l1584 009B                   i1l1576 0093                   i1l1568 0087  
                 i1l1840 040E                   i1l1832 03DE                   u210_20 03CA  
                 i1l1824 03C3                   i1l1808 0392                   i1l1816 03A6  
                 u202_20 037F                   i1l1760 02E8                   i1l1752 02C9  
                 i1l1744 02B6                   i1l1728 0291                   i1l1736 02A1  
                 i1l1912 052B                   i1l1904 0509                   u130_21 0710  
                 u210_21 03C9                   u202_21 037E                   i1l1690 0218  
                 i1l1682 0206                   i1l1674 01FA                   i1l1666 01EC  
                 i1l1658 01D5                   i1l1594 00A5                   i1l1586 009D  
                 i1l1578 0095                   i1l1850 043C                   i1l1842 041C  
                 i1l1834 03E2                   i1l1818 03AA                   i1l1762 02EC  
                 i1l1754 02CA                   i1l1746 02B7                   i1l1738 02A9  
                 i1l1914 0558                   i1l1906 0518                   i1l1692 021D  
                 i1l1684 020A                   i1l1676 01FF                   i1l1668 01F0  
                 i1l1596 00A7                   i1l1588 009F                   i1l1852 0440  
                 i1l1844 042B                   i1l1836 03FB                   i1l1828 03CB  
                 i1l1780 032D                   i1l1772 0303                   i1l1748 02BC  
                 i1l1756 02CC                   i1l1860 0452                   i1l1916 0559  
                 i1l1908 051D                   i1l1950 0634                   i1l1694 022B  
                 i1l1686 0210                   i1l1678 0201                   i1l1598 00A9  
                 i1l1854 0442                   i1l1846 042F                   i1l1838 0401  
                 i1l1790 034B                   i1l1782 032F                   i1l1774 0315  
                 i1l1758 02DC                   i1l1766 02F5                   i1l1862 0457  
                 i1l1960 065A                   i1l1952 063D                   u131_20 071A  
                 i1l1696 022F                   i1l1848 0437                   u211_20 03D0  
                 u203_20 0387                   i1l1784 0334                   i1l1792 0354  
                 i1l1776 031D                   i1l1768 02FA                   i1l1880 049F  
                 i1l1872 0484                   i1l1864 045B                   u131_21 0719  
                 u211_21 03CF                   u203_21 0386                   i1l1962 0662  
                 i1l1698 024D                   i1l1794 0366                   i1l1786 0346  
                 i1l1778 0325                   i1l1890 04D6                   i1l1882 04AD  
                 i1l1874 0487                   i1l1866 046B                   i1l1980 0689  
                 i1l1972 0670                   i1l1964 0664                   i1l1956 0646  
                 i1l1796 0367                   i1l1788 034A                   i1l1892 04E0  
                 i1l1884 04BD                   i1l1876 0494                   i1l1868 047B  
                 i1l1982 0699                   i1l1966 0668                   i1l1974 0682  
                 i1l1958 0659                   i1l1798 0375                   i1l1894 04F6  
                 i1l1886 04C8                   i1l1878 049B                   i1l1990 05C3  
                 i1l1984 069E                   u132_20 0723                   u212_20 03E2  
                 i1l1896 04FB                   i1l1888 04CC                   i1l1992 05C7  
                 u132_21 0722                   u212_21 03E1                   i1l1898 04FF  
                 i1l1994 05C9                   i1l1986 05BA                   u140_24 06E8  
                 i1l1996 05CA                   i1l1988 05BE                   u140_25 06E5  
                 u204_25 038B                   u220_25 048C                   i1l1998 05CB  
                 u141_20 06F8                   u133_20 072C                   u213_20 03F1  
                 u205_20 0396                   u221_20 049A                   u141_21 06F7  
                 u133_21 072B                   u205_21 0395                   u221_21 0499  
                 u213_25 03EC                   u134_20 0735                   u150_20 008B  
                 u142_20 0033                   u214_20 040E                   u230_20 04FF  
                 u134_21 0734                   u150_21 008A                   u142_21 0032  
                 u214_21 040D                   u230_21 04FE                   u214_25 040A  
                 u206_25 0399                   u222_25 04AE                   u135_20 06B5  
                 u151_20 00C5                   u143_20 0039                   u215_20 042B  
                 u207_20 03AA                   u223_20 04BC                   u231_20 052B  
                 u135_21 06B4                   u151_21 00C4                   u143_21 0038  
                 u215_21 042A                   u207_21 03A9                   u223_21 04BB  
                 u231_21 052A                   u151_25 00C1                   u215_25 0427  
                 u240_20 0699                   u232_20 063D                   u136_20 06BE  
                 u152_20 00D0                   u144_20 003E                   u216_20 0440  
                 u208_20 03AF                   u240_21 0698                   u232_21 063C  
                 u136_21 06BD                   u160_21 011F                   u152_21 00CE  
                 u144_21 003D                   u216_21 043F                   u208_21 03AE  
                 u160_22 0126                   u160_23 012D                   u224_25 04C1  
                 u241_20 069E                   u233_20 0654                   u137_20 06C9  
                 u129_20 0708                   u161_20 0131                   u153_20 00D1  
                 u145_20 005A                   u209_20 03C3                   u225_20 04CC  
                 u217_20 0457                   u241_21 069D                   u137_21 06C8  
                 u129_21 0707                   u161_21 0130                   u145_21 0059  
                 u209_21 03C2                   u225_21 04CB                   u217_21 0456  
                 u233_25 064F                   u234_20 0668                   u138_20 06D2  
                 u170_20 01DA                   u162_20 0135                   u154_20 00E1  
                 u146_20 0063                   u226_20 04D2                   u218_20 045B  
                 u250_20 0623                   u242_20 05BE                   u234_21 0667  
                 u138_21 06D1                   u170_21 01D9                   u162_21 0134  
                 u154_21 00E0                   u146_21 0062                   u226_21 04D1  
                 u218_21 045A                   u250_21 0622                   u242_21 05BD  
                 u235_20 066F                   u139_20 06DC                   u163_20 0142  
                 u155_20 00EE                   u147_20 0069                   u227_20 04D6  
                 u219_20 047B                   u251_20 062A                   u243_20 05C3  
                 u235_21 066E                   u139_21 06DB                   u163_21 0141  
                 u155_21 00ED                   u147_21 0068                   u227_21 04D5  
                 u219_21 047A                   u251_21 0629                   u243_21 05C2  
                 u171_25 01E5                   u180_20 022F                   u172_20 01F0  
                 u148_20 006E                   u228_20 04EB                   u244_20 05C7  
                 u180_21 022E                   u172_21 01EF                   u148_21 006D  
                 u244_21 05C6                   u236_25 0671                   u164_25 0145  
                 u156_25 00F1                   u228_25 04E6                   u252_27 05EA  
                 u237_20 0681                   u181_20 023E                   u173_20 01F5  
                 u165_20 0167                   u157_20 0104                   u149_20 0087  
                 u229_20 04FB                   u245_20 05D2                   u237_21 0680  
                 u173_21 01F4                   u165_21 0166                   u157_21 0103  
                 u149_21 0086                   u229_21 04FA                   u245_21 05D1  
                 u165_23 0163                   u181_25 0239                   u253_27 061A  
                 u238_20 0688                   u182_20 024D                   u174_20 01FF  
                 u158_20 0108                   u190_20 0296                   u246_20 05D6  
                 u238_21 0687                   u182_21 024C                   u174_21 01FE  
                 u166_21 017E                   u158_21 0107                   u190_21 0295  
                 u246_21 05D5                   u166_22 017F                   u166_23 0184  
                 u166_24 0185                   u166_25 018A                   u166_26 018B  
                 u254_27 0511                   u183_20 0256                   u175_20 0205  
                 u167_20 0192                   u159_20 010D                   u191_20 02B6  
                 u247_20 05E2                   u183_21 0255                   u175_21 0204  
                 u167_21 0193                   u159_21 010C                   u191_21 02B5  
                 u247_21 05E1                   u167_22 0198                   u167_23 0199  
                 u239_25 068B                   u255_27 0776                   u184_20 025B  
                 u176_20 020A                   u168_20 01B0                   u192_20 02BC  
                 u248_20 05F2                   u184_21 025A                   u176_21 0209  
                 u168_21 01AF                   u192_21 02BB                   u248_21 05F1  
                 u256_27 0780                   u185_20 0268                   u177_20 0210  
                 u169_20 01D5                   u193_20 02C1                   u249_20 05F6  
                 u185_21 0267                   u177_21 020F                   u169_21 01D4  
                 u193_21 02C0                   u249_21 05F5                   u186_20 026D  
                 u178_20 0217                   u194_20 02DC                   u186_21 026C  
                 u178_21 0216                   u194_21 02DB                   u187_20 027C  
                 u179_20 021D                   u195_20 02FA                   u187_21 027B  
                 u179_21 021C                   u195_21 02F9                   u196_20 0334  
                 u188_20 028B                   u196_21 0333                   u188_21 028A  
                 u189_20 0291                   u189_21 0290                   u197_25 0336  
                 u198_25 033F                   u199_20 034A                   u199_21 0349  
                 _SSPADD 0093                   _SSPBUF 0013                   _SSPCON 0014  
       __end_of___xxtofl 0509             ??_DHT11_Read 0072                ??___fladd 0042  
              ??___fldiv 0028                ??___fltol 0074         __end_of_readTemp 05BA  
                 saved_w 007E       __end_of_DHT11_Read 06FD             ___xxtofl@arg 007A  
           ___xxtofl@exp 0079             ___xxtofl@val 0070  __end_of__initialization 0022  
             ___fltol@f1 0070           __pcstackCOMMON 0070            __end_of_setup 076C  
        _temperatura_dec 0063                  ??_setup 00A1    I2C_Slave_Init@address 00A0  
             __pbssBANK0 005A               __pmaintext 07A1               __pintentry 0004  
              ?___xxtofl 0070                  _SSPCON2 0091                  _SSPSTAT 0094  
              ?_readTemp 0070            ??_DHT11_Start 0070                  ___fladd 0026  
                ___fldiv 027E                  ___fltol 0634                  __ptext1 073B  
                __ptext2 0787                  __ptext3 05BA                  __ptext4 0509  
                __ptext5 0451                  __ptext6 027E                  __ptext7 0026  
                __ptext8 076C                  __ptext9 06FD                _T1CONbits 0010  
             ??___xxtofl 0074                  _paridad 0062                  _humedad 0066  
                _timeout 005E     end_of_initialization 0022               ??_readTemp 004E  
         _I2C_Slave_Init 0787      __end_of_DHT11_Start 0787                _PORTDbits 0008  
            ___fladd@grs 004D            ___xxtofl@sign 0078                _TRISCbits 0087  
              _TRISDbits 0088              ___fldiv@grs 0034              ___fldiv@rem 002D  
 __end_of_I2C_Slave_Init 07A1      start_initialization 0013              __end_of_isr 0634  
            _DHT11_Start 076C          ?_I2C_Slave_Init 0070                ___fladd@a 003E  
              ___fladd@b 003A                ___fldiv@a 0020                ___fldiv@b 0024  
              ___latbits 0002            __pcstackBANK0 0020            __pcstackBANK1 00A0  
               ?___fladd 003A                 ?___fldiv 0020                 ?___fltol 0070  
         _DHT11_Response 06FD        interrupt_function 0004                 _PIE1bits 008C  
               _PIR1bits 000C              DHT11_Read@i 0077   __end_of_DHT11_Response 073B  
             _DHT11_Read 06AA          DHT11_Read@_data 0075                 ___xxtofl 0451  
        ?_DHT11_Response 0070                 __ptext10 06AA                 __ptext11 0634  
       ??_I2C_Slave_Init 00A0              _humedad_dec 0065                 _readTemp 0509  
           ?_DHT11_Start 0070               _INTCONbits 000B                 intlevel1 0000  
            ?_DHT11_Read 0070               _OSCCONbits 008F              _temperatura 0064  
            _temperature 005A              _SSPCON2bits 0091            ___fladd@signs 004A  
           ___fladd@aexp 004B             ___fladd@bexp 004C               _SSPCONbits 0014  
